	.text
	.def	@feat.00;
	.scl	3;
	.type	0;
	.endef
	.globl	@feat.00
.set @feat.00, 0
	.file	"lab9.cpp"
	.file	1 "D:\\Code\\University\\algoritms\\lab9" "lab9.cpp"
	.file	2 "C:/mingw64/x86_64-w64-mingw32/include" "stdint.h"
	.file	3 "C:/mingw64/include/c++/14.2.0" "ratio"
	.file	4 "C:/mingw64/include/c++/14.2.0/bits" "chrono.h"
	.file	5 "C:/mingw64/x86_64-w64-mingw32/include" "corecrt.h"
	.file	6 "C:/mingw64/include/c++/14.2.0/bits" "new_allocator.h"
	.file	7 "C:/mingw64/include/c++/14.2.0/x86_64-w64-mingw32/bits" "c++config.h"
	.file	8 "C:/mingw64/include/c++/14.2.0/x86_64-w64-mingw32/bits" "c++allocator.h"
	.file	9 "C:/mingw64/include/c++/14.2.0/bits" "allocator.h"
	.file	10 "C:/mingw64/include/c++/14.2.0/bits" "char_traits.h"
	.file	11 "C:/mingw64/include/c++/14.2.0" "string_view"
	.file	12 "C:/mingw64/include/c++/14.2.0/bits" "alloc_traits.h"
	.file	13 "C:/mingw64/include/c++/14.2.0/ext" "alloc_traits.h"
	.file	14 "C:/mingw64/include/c++/14.2.0/bits" "basic_string.h"
	.file	15 "C:/mingw64/include/c++/14.2.0/bits" "stl_iterator.h"
	.file	16 "C:/mingw64/include/c++/14.2.0/bits" "stl_iterator_base_types.h"
	.file	17 "C:/mingw64/include/c++/14.2.0/bits" "basic_string.tcc"
	.def	main;
	.scl	2;
	.type	32;
	.endef
	.globl	main                            # -- Begin function main
	.p2align	4, 0x90
main:                                   # @main
.Lfunc_begin0:
	.loc	1 65 0                          # D:\Code\University\algoritms\lab9\lab9.cpp:65:0
.seh_proc main
# %bb.0:
	pushq	%rbp
	.seh_pushreg %rbp
	subq	$144, %rsp
	.seh_stackalloc 144
	leaq	128(%rsp), %rbp
	.seh_setframe %rbp, 128
	.seh_endprologue
	callq	__main
	movl	$0, 12(%rbp)
.Ltmp0:
	.loc	1 66 9 prologue_end             # D:\Code\University\algoritms\lab9\lab9.cpp:66:9
	movl	$1, 8(%rbp)
	.loc	1 67 9                          # D:\Code\University\algoritms\lab9\lab9.cpp:67:9
	movl	$1, 4(%rbp)
	.loc	1 68 9                          # D:\Code\University\algoritms\lab9\lab9.cpp:68:9
	movl	$1, (%rbp)
	.loc	1 69 15                         # D:\Code\University\algoritms\lab9\lab9.cpp:69:15
	movq	$0, -8(%rbp)
.LBB0_1:                                # =>This Inner Loop Header: Depth=1
	.loc	1 71 20                         # D:\Code\University\algoritms\lab9\lab9.cpp:71:20
	cmpl	$0, 8(%rbp)
	.loc	1 71 5 is_stmt 0                # D:\Code\University\algoritms\lab9\lab9.cpp:71:5
	je	.LBB0_20
# %bb.2:                                #   in Loop: Header=BB0_1 Depth=1
.Ltmp1:
	.loc	1 73 9 is_stmt 1                # D:\Code\University\algoritms\lab9\lab9.cpp:73:9
	leaq	.L.str(%rip), %rcx
	movq	%rcx, -64(%rbp)                 # 8-byte Spill
	callq	system
	.loc	1 74 19                         # D:\Code\University\algoritms\lab9\lab9.cpp:74:19
	movq	.refptr._ZSt4cout(%rip), %rcx
	movq	%rcx, -48(%rbp)                 # 8-byte Spill
	leaq	.L.str.1(%rip), %rdx
	callq	_ZStlsISt11char_traitsIcEERSt13basic_ostreamIcT_ES5_PKc
	.loc	1 75 18                         # D:\Code\University\algoritms\lab9\lab9.cpp:75:18
	movq	.refptr._ZSt3cin(%rip), %rcx
	movq	%rcx, -40(%rbp)                 # 8-byte Spill
	movq	%rbp, %rdx
	callq	_ZNSirsERi
	.loc	1 76 9                          # D:\Code\University\algoritms\lab9\lab9.cpp:76:9
	movq	__imp_Sleep(%rip), %rax
	movl	$500, %ecx                      # imm = 0x1F4
	callq	*%rax
	movq	-64(%rbp), %rcx                 # 8-byte Reload
	.loc	1 77 9                          # D:\Code\University\algoritms\lab9\lab9.cpp:77:9
	callq	system
	.loc	1 79 30                         # D:\Code\University\algoritms\lab9\lab9.cpp:79:30
	movslq	(%rbp), %rax
	movl	$4, %ecx
	.loc	1 79 22 is_stmt 0               # D:\Code\University\algoritms\lab9\lab9.cpp:79:22
	mulq	%rcx
	movq	%rax, %rcx
	movq	$-1, %rax
	cmovoq	%rax, %rcx
	movq	%rcx, -72(%rbp)                 # 8-byte Spill
	callq	_Znay
	movq	-72(%rbp), %r8                  # 8-byte Reload
	movq	%rax, %rcx
	movq	%rcx, -56(%rbp)                 # 8-byte Spill
	xorl	%eax, %eax
	movb	%al, %dl
	callq	memset
	movq	-64(%rbp), %rcx                 # 8-byte Reload
                                        # kill: def $rdx killed $rax
	movq	-56(%rbp), %rax                 # 8-byte Reload
	.loc	1 79 14                         # D:\Code\University\algoritms\lab9\lab9.cpp:79:14
	movq	%rax, -16(%rbp)
	.loc	1 81 9 is_stmt 1                # D:\Code\University\algoritms\lab9\lab9.cpp:81:9
	callq	system
	movq	-48(%rbp), %rcx                 # 8-byte Reload
	.loc	1 82 19                         # D:\Code\University\algoritms\lab9\lab9.cpp:82:19
	leaq	.L.str.2(%rip), %rdx
	callq	_ZStlsISt11char_traitsIcEERSt13basic_ostreamIcT_ES5_PKc
	movq	-48(%rbp), %rcx                 # 8-byte Reload
	.loc	1 83 19                         # D:\Code\University\algoritms\lab9\lab9.cpp:83:19
	leaq	.L.str.3(%rip), %rdx
	callq	_ZStlsISt11char_traitsIcEERSt13basic_ostreamIcT_ES5_PKc
	movq	-48(%rbp), %rcx                 # 8-byte Reload
	.loc	1 84 19                         # D:\Code\University\algoritms\lab9\lab9.cpp:84:19
	leaq	.L.str.4(%rip), %rdx
	callq	_ZStlsISt11char_traitsIcEERSt13basic_ostreamIcT_ES5_PKc
	movq	-48(%rbp), %rcx                 # 8-byte Reload
	.loc	1 85 19                         # D:\Code\University\algoritms\lab9\lab9.cpp:85:19
	leaq	.L.str.5(%rip), %rdx
	callq	_ZStlsISt11char_traitsIcEERSt13basic_ostreamIcT_ES5_PKc
	movq	-48(%rbp), %rcx                 # 8-byte Reload
	.loc	1 86 19                         # D:\Code\University\algoritms\lab9\lab9.cpp:86:19
	leaq	.L.str.6(%rip), %rdx
	callq	_ZStlsISt11char_traitsIcEERSt13basic_ostreamIcT_ES5_PKc
	movq	-40(%rbp), %rcx                 # 8-byte Reload
	leaq	4(%rbp), %rdx
	.loc	1 87 18                         # D:\Code\University\algoritms\lab9\lab9.cpp:87:18
	callq	_ZNSirsERi
	.loc	1 89 17                         # D:\Code\University\algoritms\lab9\lab9.cpp:89:17
	movl	4(%rbp), %eax
	movl	%eax, -28(%rbp)                 # 4-byte Spill
	.loc	1 89 9 is_stmt 0                # D:\Code\University\algoritms\lab9\lab9.cpp:89:9
	subl	$1, %eax
	je	.LBB0_3
	jmp	.LBB0_21
.LBB0_21:                               #   in Loop: Header=BB0_1 Depth=1
	.loc	1 0 9                           # D:\Code\University\algoritms\lab9\lab9.cpp:0:9
	movl	-28(%rbp), %eax                 # 4-byte Reload
	.loc	1 89 9                          # D:\Code\University\algoritms\lab9\lab9.cpp:89:9
	subl	$2, %eax
	je	.LBB0_4
	jmp	.LBB0_22
.LBB0_22:                               #   in Loop: Header=BB0_1 Depth=1
	.loc	1 0 9                           # D:\Code\University\algoritms\lab9\lab9.cpp:0:9
	movl	-28(%rbp), %eax                 # 4-byte Reload
	.loc	1 89 9                          # D:\Code\University\algoritms\lab9\lab9.cpp:89:9
	subl	$3, %eax
	je	.LBB0_5
	jmp	.LBB0_6
.LBB0_3:                                #   in Loop: Header=BB0_1 Depth=1
.Ltmp2:
	.loc	1 92 38 is_stmt 1               # D:\Code\University\algoritms\lab9\lab9.cpp:92:38
	movl	(%rbp), %edx
	.loc	1 92 13 is_stmt 0               # D:\Code\University\algoritms\lab9\lab9.cpp:92:13
	leaq	-16(%rbp), %rcx
	callq	_Z17FillArrayBestCaseRPii
	.loc	1 93 13 is_stmt 1               # D:\Code\University\algoritms\lab9\lab9.cpp:93:13
	jmp	.LBB0_6
.LBB0_4:                                #   in Loop: Header=BB0_1 Depth=1
	.loc	1 95 40                         # D:\Code\University\algoritms\lab9\lab9.cpp:95:40
	movl	(%rbp), %edx
	.loc	1 95 13 is_stmt 0               # D:\Code\University\algoritms\lab9\lab9.cpp:95:13
	leaq	-16(%rbp), %rcx
	callq	_Z19FillArrayMiddleCaseRPii
	.loc	1 96 13 is_stmt 1               # D:\Code\University\algoritms\lab9\lab9.cpp:96:13
	jmp	.LBB0_6
.LBB0_5:                                #   in Loop: Header=BB0_1 Depth=1
	.loc	1 98 37                         # D:\Code\University\algoritms\lab9\lab9.cpp:98:37
	movl	(%rbp), %edx
	.loc	1 98 13 is_stmt 0               # D:\Code\University\algoritms\lab9\lab9.cpp:98:13
	leaq	-16(%rbp), %rcx
	callq	_Z16FillArrayBadCaseRPii
.Ltmp3:
.LBB0_6:                                #   in Loop: Header=BB0_1 Depth=1
	.loc	1 102 13 is_stmt 1              # D:\Code\University\algoritms\lab9\lab9.cpp:102:13
	movl	(%rbp), %eax
	.loc	1 102 18 is_stmt 0              # D:\Code\University\algoritms\lab9\lab9.cpp:102:18
	cmpl	PRINT_MAX_SIZE(%rip), %eax
.Ltmp4:
	.loc	1 102 13                        # D:\Code\University\algoritms\lab9\lab9.cpp:102:13
	jg	.LBB0_8
# %bb.7:                                #   in Loop: Header=BB0_1 Depth=1
.Ltmp5:
	.loc	1 104 23 is_stmt 1              # D:\Code\University\algoritms\lab9\lab9.cpp:104:23
	movq	.refptr._ZSt4cout(%rip), %rcx
	leaq	.L.str.7(%rip), %rdx
	callq	_ZStlsISt11char_traitsIcEERSt13basic_ostreamIcT_ES5_PKc
	.loc	1 105 24                        # D:\Code\University\algoritms\lab9\lab9.cpp:105:24
	movq	-16(%rbp), %rcx
	.loc	1 105 31 is_stmt 0              # D:\Code\University\algoritms\lab9\lab9.cpp:105:31
	movl	(%rbp), %edx
	.loc	1 105 13                        # D:\Code\University\algoritms\lab9\lab9.cpp:105:13
	callq	_Z10PrintArrayPii
.Ltmp6:
.LBB0_8:                                #   in Loop: Header=BB0_1 Depth=1
	.loc	1 108 9 is_stmt 1               # D:\Code\University\algoritms\lab9\lab9.cpp:108:9
	callq	getch
	.loc	1 109 9                         # D:\Code\University\algoritms\lab9\lab9.cpp:109:9
	leaq	.L.str(%rip), %rcx
	callq	system
	.loc	1 111 19                        # D:\Code\University\algoritms\lab9\lab9.cpp:111:19
	movq	.refptr._ZSt4cout(%rip), %rcx
	movq	%rcx, -88(%rbp)                 # 8-byte Spill
	leaq	.L.str.8(%rip), %rdx
	callq	_ZStlsISt11char_traitsIcEERSt13basic_ostreamIcT_ES5_PKc
	movq	-88(%rbp), %rcx                 # 8-byte Reload
	.loc	1 112 19                        # D:\Code\University\algoritms\lab9\lab9.cpp:112:19
	leaq	.L.str.9(%rip), %rdx
	callq	_ZStlsISt11char_traitsIcEERSt13basic_ostreamIcT_ES5_PKc
	movq	-88(%rbp), %rcx                 # 8-byte Reload
	.loc	1 113 19                        # D:\Code\University\algoritms\lab9\lab9.cpp:113:19
	leaq	.L.str.10(%rip), %rdx
	callq	_ZStlsISt11char_traitsIcEERSt13basic_ostreamIcT_ES5_PKc
	movq	-88(%rbp), %rcx                 # 8-byte Reload
	.loc	1 114 19                        # D:\Code\University\algoritms\lab9\lab9.cpp:114:19
	leaq	.L.str.11(%rip), %rdx
	callq	_ZStlsISt11char_traitsIcEERSt13basic_ostreamIcT_ES5_PKc
	movq	-88(%rbp), %rcx                 # 8-byte Reload
	.loc	1 115 19                        # D:\Code\University\algoritms\lab9\lab9.cpp:115:19
	leaq	.L.str.12(%rip), %rdx
	callq	_ZStlsISt11char_traitsIcEERSt13basic_ostreamIcT_ES5_PKc
	.loc	1 116 18                        # D:\Code\University\algoritms\lab9\lab9.cpp:116:18
	movq	.refptr._ZSt3cin(%rip), %rcx
	leaq	4(%rbp), %rdx
	callq	_ZNSirsERi
	.loc	1 118 17                        # D:\Code\University\algoritms\lab9\lab9.cpp:118:17
	movl	4(%rbp), %eax
	.loc	1 118 9 is_stmt 0               # D:\Code\University\algoritms\lab9\lab9.cpp:118:9
	decl	%eax
	movl	%eax, %ecx
	movq	%rcx, -80(%rbp)                 # 8-byte Spill
	subl	$3, %eax
	ja	.LBB0_13
# %bb.23:                               #   in Loop: Header=BB0_1 Depth=1
	.loc	1 0 9                           # D:\Code\University\algoritms\lab9\lab9.cpp:0:9
	movq	-80(%rbp), %rax                 # 8-byte Reload
	leaq	.LJTI0_0(%rip), %rcx
	.loc	1 118 9                         # D:\Code\University\algoritms\lab9\lab9.cpp:118:9
	movslq	(%rcx,%rax,4), %rax
	addq	%rcx, %rax
	jmpq	*%rax
.LBB0_9:                                #   in Loop: Header=BB0_1 Depth=1
.Ltmp7:
	.loc	1 121 49 is_stmt 1              # D:\Code\University\algoritms\lab9\lab9.cpp:121:49
	movl	(%rbp), %r8d
	.loc	1 121 21 is_stmt 0              # D:\Code\University\algoritms\lab9\lab9.cpp:121:21
	leaq	_Z9QuickSortRPii(%rip), %rcx
	leaq	-16(%rbp), %rdx
	leaq	-8(%rbp), %r9
	callq	_Z9ArraySortPFPiRS_iES0_iRx
	.loc	1 121 19                        # D:\Code\University\algoritms\lab9\lab9.cpp:121:19
	movq	%rax, -16(%rbp)
	.loc	1 122 13 is_stmt 1              # D:\Code\University\algoritms\lab9\lab9.cpp:122:13
	jmp	.LBB0_13
.LBB0_10:                               #   in Loop: Header=BB0_1 Depth=1
	.loc	1 124 49                        # D:\Code\University\algoritms\lab9\lab9.cpp:124:49
	movl	(%rbp), %r8d
	.loc	1 124 21 is_stmt 0              # D:\Code\University\algoritms\lab9\lab9.cpp:124:21
	leaq	_Z9ShellSortRPii(%rip), %rcx
	leaq	-16(%rbp), %rdx
	leaq	-8(%rbp), %r9
	callq	_Z9ArraySortPFPiRS_iES0_iRx
	.loc	1 124 19                        # D:\Code\University\algoritms\lab9\lab9.cpp:124:19
	movq	%rax, -16(%rbp)
	.loc	1 125 13 is_stmt 1              # D:\Code\University\algoritms\lab9\lab9.cpp:125:13
	jmp	.LBB0_13
.LBB0_11:                               #   in Loop: Header=BB0_1 Depth=1
	.loc	1 127 51                        # D:\Code\University\algoritms\lab9\lab9.cpp:127:51
	movl	(%rbp), %r8d
	.loc	1 127 21 is_stmt 0              # D:\Code\University\algoritms\lab9\lab9.cpp:127:21
	leaq	_Z11PyramidSortRPii(%rip), %rcx
	leaq	-16(%rbp), %rdx
	leaq	-8(%rbp), %r9
	callq	_Z9ArraySortPFPiRS_iES0_iRx
	.loc	1 127 19                        # D:\Code\University\algoritms\lab9\lab9.cpp:127:19
	movq	%rax, -16(%rbp)
	.loc	1 128 13 is_stmt 1              # D:\Code\University\algoritms\lab9\lab9.cpp:128:13
	jmp	.LBB0_13
.LBB0_12:                               #   in Loop: Header=BB0_1 Depth=1
	.loc	1 130 50                        # D:\Code\University\algoritms\lab9\lab9.cpp:130:50
	movl	(%rbp), %r8d
	.loc	1 130 21 is_stmt 0              # D:\Code\University\algoritms\lab9\lab9.cpp:130:21
	leaq	_Z10ShakerSortRPii(%rip), %rcx
	leaq	-16(%rbp), %rdx
	leaq	-8(%rbp), %r9
	callq	_Z9ArraySortPFPiRS_iES0_iRx
	.loc	1 130 19                        # D:\Code\University\algoritms\lab9\lab9.cpp:130:19
	movq	%rax, -16(%rbp)
.Ltmp8:
.LBB0_13:                               #   in Loop: Header=BB0_1 Depth=1
	.loc	1 134 13 is_stmt 1              # D:\Code\University\algoritms\lab9\lab9.cpp:134:13
	movl	(%rbp), %eax
	.loc	1 134 18 is_stmt 0              # D:\Code\University\algoritms\lab9\lab9.cpp:134:18
	cmpl	PRINT_MAX_SIZE(%rip), %eax
.Ltmp9:
	.loc	1 134 13                        # D:\Code\University\algoritms\lab9\lab9.cpp:134:13
	jg	.LBB0_15
# %bb.14:                               #   in Loop: Header=BB0_1 Depth=1
.Ltmp10:
	.loc	1 136 23 is_stmt 1              # D:\Code\University\algoritms\lab9\lab9.cpp:136:23
	movq	.refptr._ZSt4cout(%rip), %rcx
	leaq	.L.str.13(%rip), %rdx
	callq	_ZStlsISt11char_traitsIcEERSt13basic_ostreamIcT_ES5_PKc
	.loc	1 137 24                        # D:\Code\University\algoritms\lab9\lab9.cpp:137:24
	movq	-16(%rbp), %rcx
	.loc	1 137 31 is_stmt 0              # D:\Code\University\algoritms\lab9\lab9.cpp:137:31
	movl	(%rbp), %edx
	.loc	1 137 13                        # D:\Code\University\algoritms\lab9\lab9.cpp:137:13
	callq	_Z10PrintArrayPii
.Ltmp11:
.LBB0_15:                               #   in Loop: Header=BB0_1 Depth=1
	.loc	1 139 19 is_stmt 1              # D:\Code\University\algoritms\lab9\lab9.cpp:139:19
	movq	.refptr._ZSt4cout(%rip), %rcx
	leaq	.L.str.14(%rip), %rdx
	callq	_ZStlsISt11char_traitsIcEERSt13basic_ostreamIcT_ES5_PKc
	movq	%rax, %rcx
	.loc	1 139 39 is_stmt 0              # D:\Code\University\algoritms\lab9\lab9.cpp:139:39
	movq	-8(%rbp), %rdx
	.loc	1 139 36                        # D:\Code\University\algoritms\lab9\lab9.cpp:139:36
	callq	_ZNSolsEx
	movq	%rax, %rcx
	.loc	1 139 48                        # D:\Code\University\algoritms\lab9\lab9.cpp:139:48
	leaq	_ZSt4endlIcSt11char_traitsIcEERSt13basic_ostreamIT_T0_ES6_(%rip), %rdx
	callq	_ZNSolsEPFRSoS_E
	.loc	1 141 9 is_stmt 1               # D:\Code\University\algoritms\lab9\lab9.cpp:141:9
	callq	getch
	.loc	1 142 9                         # D:\Code\University\algoritms\lab9\lab9.cpp:142:9
	leaq	.L.str(%rip), %rcx
	callq	system
	.loc	1 144 18                        # D:\Code\University\algoritms\lab9\lab9.cpp:144:18
	movq	-16(%rbp), %rax
	movq	%rax, -96(%rbp)                 # 8-byte Spill
	.loc	1 144 9 is_stmt 0               # D:\Code\University\algoritms\lab9\lab9.cpp:144:9
	cmpq	$0, %rax
	je	.LBB0_17
# %bb.16:                               #   in Loop: Header=BB0_1 Depth=1
	.loc	1 0 9                           # D:\Code\University\algoritms\lab9\lab9.cpp:0:9
	movq	-96(%rbp), %rcx                 # 8-byte Reload
	.loc	1 144 9                         # D:\Code\University\algoritms\lab9\lab9.cpp:144:9
	callq	_ZdaPv
.LBB0_17:                               #   in Loop: Header=BB0_1 Depth=1
	.loc	1 145 15 is_stmt 1              # D:\Code\University\algoritms\lab9\lab9.cpp:145:15
	movq	$0, -16(%rbp)
	.loc	1 147 13                        # D:\Code\University\algoritms\lab9\lab9.cpp:147:13
	movl	$0, -20(%rbp)
	.loc	1 148 19                        # D:\Code\University\algoritms\lab9\lab9.cpp:148:19
	movq	.refptr._ZSt4cout(%rip), %rcx
	leaq	.L.str.15(%rip), %rdx
	callq	_ZStlsISt11char_traitsIcEERSt13basic_ostreamIcT_ES5_PKc
	.loc	1 149 18                        # D:\Code\University\algoritms\lab9\lab9.cpp:149:18
	movq	.refptr._ZSt3cin(%rip), %rcx
	leaq	-20(%rbp), %rdx
	callq	_ZNSirsERi
.Ltmp12:
	.loc	1 151 21                        # D:\Code\University\algoritms\lab9\lab9.cpp:151:21
	cmpl	$1, -20(%rbp)
.Ltmp13:
	.loc	1 151 13 is_stmt 0              # D:\Code\University\algoritms\lab9\lab9.cpp:151:13
	jne	.LBB0_19
# %bb.18:                               #   in Loop: Header=BB0_1 Depth=1
.Ltmp14:
	.loc	1 153 13 is_stmt 1              # D:\Code\University\algoritms\lab9\lab9.cpp:153:13
	leaq	.L.str(%rip), %rcx
	callq	system
	.loc	1 155 23                        # D:\Code\University\algoritms\lab9\lab9.cpp:155:23
	movq	.refptr._ZSt4cout(%rip), %rcx
	leaq	.L.str.16(%rip), %rdx
	callq	_ZStlsISt11char_traitsIcEERSt13basic_ostreamIcT_ES5_PKc
	.loc	1 156 22                        # D:\Code\University\algoritms\lab9\lab9.cpp:156:22
	movq	.refptr._ZSt3cin(%rip), %rcx
	leaq	-24(%rbp), %rdx
	callq	_ZNSirsERi
	.loc	1 157 27                        # D:\Code\University\algoritms\lab9\lab9.cpp:157:27
	movl	-24(%rbp), %ecx
	.loc	1 157 13 is_stmt 0              # D:\Code\University\algoritms\lab9\lab9.cpp:157:13
	callq	_Z13arrayAutoTesti
	.loc	1 158 13 is_stmt 1              # D:\Code\University\algoritms\lab9\lab9.cpp:158:13
	callq	getch
.Ltmp15:
.LBB0_19:                               #   in Loop: Header=BB0_1 Depth=1
	.loc	1 161 9                         # D:\Code\University\algoritms\lab9\lab9.cpp:161:9
	leaq	.L.str(%rip), %rcx
	callq	system
	.loc	1 162 19                        # D:\Code\University\algoritms\lab9\lab9.cpp:162:19
	movq	.refptr._ZSt4cout(%rip), %rcx
	leaq	.L.str.17(%rip), %rdx
	callq	_ZStlsISt11char_traitsIcEERSt13basic_ostreamIcT_ES5_PKc
	.loc	1 163 18                        # D:\Code\University\algoritms\lab9\lab9.cpp:163:18
	movq	.refptr._ZSt3cin(%rip), %rcx
	leaq	8(%rbp), %rdx
	callq	_ZNSirsERi
.Ltmp16:
	.loc	1 71 5                          # D:\Code\University\algoritms\lab9\lab9.cpp:71:5
	jmp	.LBB0_1
.LBB0_20:
	.loc	1 165 5                         # D:\Code\University\algoritms\lab9\lab9.cpp:165:5
	xorl	%eax, %eax
	.loc	1 165 5 epilogue_begin is_stmt 0 # D:\Code\University\algoritms\lab9\lab9.cpp:165:5
	addq	$144, %rsp
	popq	%rbp
	retq
.Ltmp17:
.Lfunc_end0:
	.section	.rdata,"dr"
	.p2align	2, 0x0
.LJTI0_0:
	.long	.LBB0_9-.LJTI0_0
	.long	.LBB0_10-.LJTI0_0
	.long	.LBB0_11-.LJTI0_0
	.long	.LBB0_12-.LJTI0_0
	.text
	.seh_endproc
                                        # -- End function
	.def	_Z17FillArrayBestCaseRPii;
	.scl	2;
	.type	32;
	.endef
	.globl	_Z17FillArrayBestCaseRPii       # -- Begin function _Z17FillArrayBestCaseRPii
	.p2align	4, 0x90
_Z17FillArrayBestCaseRPii:              # @_Z17FillArrayBestCaseRPii
.Lfunc_begin1:
	.loc	1 178 0 is_stmt 1               # D:\Code\University\algoritms\lab9\lab9.cpp:178:0
.seh_proc _Z17FillArrayBestCaseRPii
# %bb.0:
	subq	$16, %rsp
	.seh_stackalloc 16
	.seh_endprologue
	movq	%rcx, 8(%rsp)
	movl	%edx, 4(%rsp)
.Ltmp18:
	.loc	1 179 14 prologue_end           # D:\Code\University\algoritms\lab9\lab9.cpp:179:14
	movl	$0, (%rsp)
.LBB1_1:                                # =>This Inner Loop Header: Depth=1
.Ltmp19:
	.loc	1 179 21 is_stmt 0              # D:\Code\University\algoritms\lab9\lab9.cpp:179:21
	movl	(%rsp), %eax
	.loc	1 179 23                        # D:\Code\University\algoritms\lab9\lab9.cpp:179:23
	cmpl	4(%rsp), %eax
.Ltmp20:
	.loc	1 179 5                         # D:\Code\University\algoritms\lab9\lab9.cpp:179:5
	jge	.LBB1_4
# %bb.2:                                #   in Loop: Header=BB1_1 Depth=1
.Ltmp21:
	.loc	1 181 21 is_stmt 1              # D:\Code\University\algoritms\lab9\lab9.cpp:181:21
	movl	(%rsp), %edx
	.loc	1 181 23 is_stmt 0              # D:\Code\University\algoritms\lab9\lab9.cpp:181:23
	addl	$1, %edx
	.loc	1 181 9                         # D:\Code\University\algoritms\lab9\lab9.cpp:181:9
	movq	8(%rsp), %rax
	movq	(%rax), %rax
	movslq	(%rsp), %rcx
	.loc	1 181 19                        # D:\Code\University\algoritms\lab9\lab9.cpp:181:19
	movl	%edx, (%rax,%rcx,4)
.Ltmp22:
# %bb.3:                                #   in Loop: Header=BB1_1 Depth=1
	.loc	1 179 33 is_stmt 1              # D:\Code\University\algoritms\lab9\lab9.cpp:179:33
	movl	(%rsp), %eax
	addl	$1, %eax
	movl	%eax, (%rsp)
	.loc	1 179 5 is_stmt 0               # D:\Code\University\algoritms\lab9\lab9.cpp:179:5
	jmp	.LBB1_1
.Ltmp23:
.LBB1_4:
	.loc	1 183 1 is_stmt 1               # D:\Code\University\algoritms\lab9\lab9.cpp:183:1
	.loc	1 183 1 epilogue_begin is_stmt 0 # D:\Code\University\algoritms\lab9\lab9.cpp:183:1
	addq	$16, %rsp
	retq
.Ltmp24:
.Lfunc_end1:
	.seh_endproc
                                        # -- End function
	.def	_Z19FillArrayMiddleCaseRPii;
	.scl	2;
	.type	32;
	.endef
	.globl	_Z19FillArrayMiddleCaseRPii     # -- Begin function _Z19FillArrayMiddleCaseRPii
	.p2align	4, 0x90
_Z19FillArrayMiddleCaseRPii:            # @_Z19FillArrayMiddleCaseRPii
.Lfunc_begin2:
	.loc	1 186 0 is_stmt 1               # D:\Code\University\algoritms\lab9\lab9.cpp:186:0
.seh_proc _Z19FillArrayMiddleCaseRPii
# %bb.0:
	subq	$56, %rsp
	.seh_stackalloc 56
	.seh_endprologue
	movq	%rcx, 48(%rsp)
	movl	%edx, 44(%rsp)
.Ltmp25:
	.loc	1 187 14 prologue_end           # D:\Code\University\algoritms\lab9\lab9.cpp:187:14
	movl	$0, 40(%rsp)
.LBB2_1:                                # =>This Inner Loop Header: Depth=1
.Ltmp26:
	.loc	1 187 21 is_stmt 0              # D:\Code\University\algoritms\lab9\lab9.cpp:187:21
	movl	40(%rsp), %eax
	.loc	1 187 23                        # D:\Code\University\algoritms\lab9\lab9.cpp:187:23
	cmpl	44(%rsp), %eax
.Ltmp27:
	.loc	1 187 5                         # D:\Code\University\algoritms\lab9\lab9.cpp:187:5
	jge	.LBB2_4
# %bb.2:                                #   in Loop: Header=BB2_1 Depth=1
.Ltmp28:
	.loc	1 189 22 is_stmt 1              # D:\Code\University\algoritms\lab9\lab9.cpp:189:22
	callq	rand
	.loc	1 189 29 is_stmt 0              # D:\Code\University\algoritms\lab9\lab9.cpp:189:29
	cltd
	idivl	44(%rsp)
	.loc	1 189 38                        # D:\Code\University\algoritms\lab9\lab9.cpp:189:38
	addl	$1, %edx
	.loc	1 189 9                         # D:\Code\University\algoritms\lab9\lab9.cpp:189:9
	movq	48(%rsp), %rax
	movq	(%rax), %rax
	movslq	40(%rsp), %rcx
	.loc	1 189 19                        # D:\Code\University\algoritms\lab9\lab9.cpp:189:19
	movl	%edx, (%rax,%rcx,4)
.Ltmp29:
# %bb.3:                                #   in Loop: Header=BB2_1 Depth=1
	.loc	1 187 33 is_stmt 1              # D:\Code\University\algoritms\lab9\lab9.cpp:187:33
	movl	40(%rsp), %eax
	addl	$1, %eax
	movl	%eax, 40(%rsp)
	.loc	1 187 5 is_stmt 0               # D:\Code\University\algoritms\lab9\lab9.cpp:187:5
	jmp	.LBB2_1
.Ltmp30:
.LBB2_4:
	.loc	1 191 1 is_stmt 1               # D:\Code\University\algoritms\lab9\lab9.cpp:191:1
	.loc	1 191 1 epilogue_begin is_stmt 0 # D:\Code\University\algoritms\lab9\lab9.cpp:191:1
	addq	$56, %rsp
	retq
.Ltmp31:
.Lfunc_end2:
	.seh_endproc
                                        # -- End function
	.def	_Z16FillArrayBadCaseRPii;
	.scl	2;
	.type	32;
	.endef
	.globl	_Z16FillArrayBadCaseRPii        # -- Begin function _Z16FillArrayBadCaseRPii
	.p2align	4, 0x90
_Z16FillArrayBadCaseRPii:               # @_Z16FillArrayBadCaseRPii
.Lfunc_begin3:
	.loc	1 194 0 is_stmt 1               # D:\Code\University\algoritms\lab9\lab9.cpp:194:0
.seh_proc _Z16FillArrayBadCaseRPii
# %bb.0:
	subq	$16, %rsp
	.seh_stackalloc 16
	.seh_endprologue
	movq	%rcx, 8(%rsp)
	movl	%edx, 4(%rsp)
.Ltmp32:
	.loc	1 195 14 prologue_end           # D:\Code\University\algoritms\lab9\lab9.cpp:195:14
	movl	$0, (%rsp)
.LBB3_1:                                # =>This Inner Loop Header: Depth=1
.Ltmp33:
	.loc	1 195 21 is_stmt 0              # D:\Code\University\algoritms\lab9\lab9.cpp:195:21
	movl	(%rsp), %eax
	.loc	1 195 23                        # D:\Code\University\algoritms\lab9\lab9.cpp:195:23
	cmpl	4(%rsp), %eax
.Ltmp34:
	.loc	1 195 5                         # D:\Code\University\algoritms\lab9\lab9.cpp:195:5
	jge	.LBB3_4
# %bb.2:                                #   in Loop: Header=BB3_1 Depth=1
.Ltmp35:
	.loc	1 197 21 is_stmt 1              # D:\Code\University\algoritms\lab9\lab9.cpp:197:21
	movl	4(%rsp), %edx
	.loc	1 197 27 is_stmt 0              # D:\Code\University\algoritms\lab9\lab9.cpp:197:27
	subl	(%rsp), %edx
	.loc	1 197 9                         # D:\Code\University\algoritms\lab9\lab9.cpp:197:9
	movq	8(%rsp), %rax
	movq	(%rax), %rax
	movslq	(%rsp), %rcx
	.loc	1 197 19                        # D:\Code\University\algoritms\lab9\lab9.cpp:197:19
	movl	%edx, (%rax,%rcx,4)
.Ltmp36:
# %bb.3:                                #   in Loop: Header=BB3_1 Depth=1
	.loc	1 195 33 is_stmt 1              # D:\Code\University\algoritms\lab9\lab9.cpp:195:33
	movl	(%rsp), %eax
	addl	$1, %eax
	movl	%eax, (%rsp)
	.loc	1 195 5 is_stmt 0               # D:\Code\University\algoritms\lab9\lab9.cpp:195:5
	jmp	.LBB3_1
.Ltmp37:
.LBB3_4:
	.loc	1 199 1 is_stmt 1               # D:\Code\University\algoritms\lab9\lab9.cpp:199:1
	.loc	1 199 1 epilogue_begin is_stmt 0 # D:\Code\University\algoritms\lab9\lab9.cpp:199:1
	addq	$16, %rsp
	retq
.Ltmp38:
.Lfunc_end3:
	.seh_endproc
                                        # -- End function
	.def	_Z10PrintArrayPii;
	.scl	2;
	.type	32;
	.endef
	.globl	_Z10PrintArrayPii               # -- Begin function _Z10PrintArrayPii
	.p2align	4, 0x90
_Z10PrintArrayPii:                      # @_Z10PrintArrayPii
.Lfunc_begin4:
	.loc	1 379 0 is_stmt 1               # D:\Code\University\algoritms\lab9\lab9.cpp:379:0
.seh_proc _Z10PrintArrayPii
# %bb.0:
	subq	$56, %rsp
	.seh_stackalloc 56
	.seh_endprologue
	movq	%rcx, 48(%rsp)
	movl	%edx, 44(%rsp)
.Ltmp39:
	.loc	1 380 16 prologue_end           # D:\Code\University\algoritms\lab9\lab9.cpp:380:16
	cmpq	$0, 48(%rsp)
.Ltmp40:
	.loc	1 380 9 is_stmt 0               # D:\Code\University\algoritms\lab9\lab9.cpp:380:9
	jne	.LBB4_2
# %bb.1:
.Ltmp41:
	.loc	1 382 9 is_stmt 1               # D:\Code\University\algoritms\lab9\lab9.cpp:382:9
	jmp	.LBB4_7
.Ltmp42:
.LBB4_2:
	.loc	1 384 14                        # D:\Code\University\algoritms\lab9\lab9.cpp:384:14
	movl	$0, 40(%rsp)
.LBB4_3:                                # =>This Inner Loop Header: Depth=1
.Ltmp43:
	.loc	1 384 21 is_stmt 0              # D:\Code\University\algoritms\lab9\lab9.cpp:384:21
	movl	40(%rsp), %eax
	.loc	1 384 23                        # D:\Code\University\algoritms\lab9\lab9.cpp:384:23
	cmpl	44(%rsp), %eax
.Ltmp44:
	.loc	1 384 5                         # D:\Code\University\algoritms\lab9\lab9.cpp:384:5
	jge	.LBB4_6
# %bb.4:                                #   in Loop: Header=BB4_3 Depth=1
.Ltmp45:
	.loc	1 386 22 is_stmt 1              # D:\Code\University\algoritms\lab9\lab9.cpp:386:22
	movq	48(%rsp), %rax
	movslq	40(%rsp), %rcx
	movl	(%rax,%rcx,4), %edx
	.loc	1 386 19 is_stmt 0              # D:\Code\University\algoritms\lab9\lab9.cpp:386:19
	movq	.refptr._ZSt4cout(%rip), %rcx
	callq	_ZNSolsEi
	movq	%rax, %rcx
	.loc	1 386 32                        # D:\Code\University\algoritms\lab9\lab9.cpp:386:32
	movl	$32, %edx
	callq	_ZStlsISt11char_traitsIcEERSt13basic_ostreamIcT_ES5_c
.Ltmp46:
# %bb.5:                                #   in Loop: Header=BB4_3 Depth=1
	.loc	1 384 33 is_stmt 1              # D:\Code\University\algoritms\lab9\lab9.cpp:384:33
	movl	40(%rsp), %eax
	addl	$1, %eax
	movl	%eax, 40(%rsp)
	.loc	1 384 5 is_stmt 0               # D:\Code\University\algoritms\lab9\lab9.cpp:384:5
	jmp	.LBB4_3
.Ltmp47:
.LBB4_6:
	.loc	1 388 15 is_stmt 1              # D:\Code\University\algoritms\lab9\lab9.cpp:388:15
	movq	.refptr._ZSt4cout(%rip), %rcx
	leaq	_ZSt4endlIcSt11char_traitsIcEERSt13basic_ostreamIT_T0_ES6_(%rip), %rdx
	callq	_ZNSolsEPFRSoS_E
.LBB4_7:
	.loc	1 389 1                         # D:\Code\University\algoritms\lab9\lab9.cpp:389:1
	nop
	.loc	1 389 1 epilogue_begin is_stmt 0 # D:\Code\University\algoritms\lab9\lab9.cpp:389:1
	addq	$56, %rsp
	retq
.Ltmp48:
.Lfunc_end4:
	.seh_endproc
                                        # -- End function
	.def	_Z9ArraySortPFPiRS_iES0_iRx;
	.scl	2;
	.type	32;
	.endef
	.globl	_Z9ArraySortPFPiRS_iES0_iRx     # -- Begin function _Z9ArraySortPFPiRS_iES0_iRx
	.p2align	4, 0x90
_Z9ArraySortPFPiRS_iES0_iRx:            # @_Z9ArraySortPFPiRS_iES0_iRx
.Lfunc_begin5:
	.loc	1 169 0 is_stmt 1               # D:\Code\University\algoritms\lab9\lab9.cpp:169:0
.seh_proc _Z9ArraySortPFPiRS_iES0_iRx
# %bb.0:
	subq	$104, %rsp
	.seh_stackalloc 104
	.seh_endprologue
	movq	%rcx, 96(%rsp)
	movq	%rdx, 88(%rsp)
	movl	%r8d, 84(%rsp)
	movq	%r9, 72(%rsp)
.Ltmp49:
	.loc	1 170 18 prologue_end           # D:\Code\University\algoritms\lab9\lab9.cpp:170:18
	callq	_ZNSt6chrono3_V212system_clock3nowEv
	movq	%rax, 64(%rsp)
	.loc	1 171 17                        # D:\Code\University\algoritms\lab9\lab9.cpp:171:17
	movq	96(%rsp), %rax
	.loc	1 171 22 is_stmt 0              # D:\Code\University\algoritms\lab9\lab9.cpp:171:22
	movq	88(%rsp), %rcx
	.loc	1 171 30                        # D:\Code\University\algoritms\lab9\lab9.cpp:171:30
	movl	84(%rsp), %edx
	.loc	1 171 17                        # D:\Code\University\algoritms\lab9\lab9.cpp:171:17
	callq	*%rax
	.loc	1 171 10                        # D:\Code\University\algoritms\lab9\lab9.cpp:171:10
	movq	%rax, 56(%rsp)
	.loc	1 172 16 is_stmt 1              # D:\Code\University\algoritms\lab9\lab9.cpp:172:16
	callq	_ZNSt6chrono3_V212system_clock3nowEv
	movq	%rax, 48(%rsp)
	.loc	1 173 71                        # D:\Code\University\algoritms\lab9\lab9.cpp:173:71
	leaq	48(%rsp), %rcx
	leaq	64(%rsp), %rdx
	callq	_ZNSt6chronomiINS_3_V212system_clockENS_8durationIxSt5ratioILx1ELx1000000000EEEES6_EENSt11common_typeIJT0_T1_EE4typeERKNS_10time_pointIT_S8_EERKNSC_ISD_S9_EE
	movq	%rax, 32(%rsp)
	.loc	1 173 13 is_stmt 0              # D:\Code\University\algoritms\lab9\lab9.cpp:173:13
	leaq	32(%rsp), %rcx
	callq	_ZNSt6chrono13duration_castINS_8durationIxSt5ratioILx1ELx1000000EEEExS2_ILx1ELx1000000000EEEENSt9enable_ifIXsr13__is_durationIT_EE5valueES7_E4typeERKNS1_IT0_T1_EE
	movq	%rax, 40(%rsp)
	.loc	1 173 80                        # D:\Code\University\algoritms\lab9\lab9.cpp:173:80
	leaq	40(%rsp), %rcx
	callq	_ZNKSt6chrono8durationIxSt5ratioILx1ELx1000000EEE5countEv
	movq	%rax, %rcx
	.loc	1 173 5                         # D:\Code\University\algoritms\lab9\lab9.cpp:173:5
	movq	72(%rsp), %rax
	.loc	1 173 11                        # D:\Code\University\algoritms\lab9\lab9.cpp:173:11
	movq	%rcx, (%rax)
	.loc	1 174 12 is_stmt 1              # D:\Code\University\algoritms\lab9\lab9.cpp:174:12
	movq	56(%rsp), %rax
	.loc	1 174 5 is_stmt 0               # D:\Code\University\algoritms\lab9\lab9.cpp:174:5
	.loc	1 174 5 epilogue_begin          # D:\Code\University\algoritms\lab9\lab9.cpp:174:5
	addq	$104, %rsp
	retq
.Ltmp50:
.Lfunc_end5:
	.seh_endproc
                                        # -- End function
	.def	_Z9QuickSortRPii;
	.scl	2;
	.type	32;
	.endef
	.globl	_Z9QuickSortRPii                # -- Begin function _Z9QuickSortRPii
	.p2align	4, 0x90
_Z9QuickSortRPii:                       # @_Z9QuickSortRPii
.Lfunc_begin6:
	.loc	1 231 0 is_stmt 1               # D:\Code\University\algoritms\lab9\lab9.cpp:231:0
.seh_proc _Z9QuickSortRPii
# %bb.0:
	subq	$56, %rsp
	.seh_stackalloc 56
	.seh_endprologue
	movq	%rcx, 48(%rsp)
	movl	%edx, 44(%rsp)
.Ltmp51:
	.loc	1 232 28 prologue_end           # D:\Code\University\algoritms\lab9\lab9.cpp:232:28
	movq	48(%rsp), %rcx
	.loc	1 232 36 is_stmt 0              # D:\Code\University\algoritms\lab9\lab9.cpp:232:36
	movl	44(%rsp), %edx
	.loc	1 232 46                        # D:\Code\University\algoritms\lab9\lab9.cpp:232:46
	movl	44(%rsp), %r9d
	.loc	1 232 52                        # D:\Code\University\algoritms\lab9\lab9.cpp:232:52
	subl	$1, %r9d
	.loc	1 232 14                        # D:\Code\University\algoritms\lab9\lab9.cpp:232:14
	xorl	%r8d, %r8d
	callq	_Z13PartQuickSortRPiiii
	movq	%rax, %rcx
	.loc	1 232 5                         # D:\Code\University\algoritms\lab9\lab9.cpp:232:5
	movq	48(%rsp), %rax
	.loc	1 232 12                        # D:\Code\University\algoritms\lab9\lab9.cpp:232:12
	movq	%rcx, (%rax)
	.loc	1 233 12 is_stmt 1              # D:\Code\University\algoritms\lab9\lab9.cpp:233:12
	movq	48(%rsp), %rax
	movq	(%rax), %rax
	.loc	1 233 5 is_stmt 0               # D:\Code\University\algoritms\lab9\lab9.cpp:233:5
	.loc	1 233 5 epilogue_begin          # D:\Code\University\algoritms\lab9\lab9.cpp:233:5
	addq	$56, %rsp
	retq
.Ltmp52:
.Lfunc_end6:
	.seh_endproc
                                        # -- End function
	.def	_Z9ShellSortRPii;
	.scl	2;
	.type	32;
	.endef
	.globl	_Z9ShellSortRPii                # -- Begin function _Z9ShellSortRPii
	.p2align	4, 0x90
_Z9ShellSortRPii:                       # @_Z9ShellSortRPii
.Lfunc_begin7:
	.loc	1 273 0 is_stmt 1               # D:\Code\University\algoritms\lab9\lab9.cpp:273:0
.seh_proc _Z9ShellSortRPii
# %bb.0:
	subq	$56, %rsp
	.seh_stackalloc 56
	.seh_endprologue
	movq	%rcx, 48(%rsp)
	movl	%edx, 44(%rsp)
.Ltmp53:
	.loc	1 277 28 prologue_end           # D:\Code\University\algoritms\lab9\lab9.cpp:277:28
	movq	48(%rsp), %rcx
	.loc	1 277 36 is_stmt 0              # D:\Code\University\algoritms\lab9\lab9.cpp:277:36
	movl	44(%rsp), %edx
	.loc	1 277 46                        # D:\Code\University\algoritms\lab9\lab9.cpp:277:46
	movl	44(%rsp), %r9d
	.loc	1 277 53                        # D:\Code\University\algoritms\lab9\lab9.cpp:277:53
	movl	44(%rsp), %eax
	.loc	1 277 14                        # D:\Code\University\algoritms\lab9\lab9.cpp:277:14
	xorl	%r8d, %r8d
	movl	%eax, 32(%rsp)
	callq	_Z13PartShellSortRPiiiii
	movq	%rax, %rcx
	.loc	1 277 5                         # D:\Code\University\algoritms\lab9\lab9.cpp:277:5
	movq	48(%rsp), %rax
	.loc	1 277 12                        # D:\Code\University\algoritms\lab9\lab9.cpp:277:12
	movq	%rcx, (%rax)
	.loc	1 278 12 is_stmt 1              # D:\Code\University\algoritms\lab9\lab9.cpp:278:12
	movq	48(%rsp), %rax
	movq	(%rax), %rax
	.loc	1 278 5 is_stmt 0               # D:\Code\University\algoritms\lab9\lab9.cpp:278:5
	.loc	1 278 5 epilogue_begin          # D:\Code\University\algoritms\lab9\lab9.cpp:278:5
	addq	$56, %rsp
	retq
.Ltmp54:
.Lfunc_end7:
	.seh_endproc
                                        # -- End function
	.def	_Z11PyramidSortRPii;
	.scl	2;
	.type	32;
	.endef
	.globl	_Z11PyramidSortRPii             # -- Begin function _Z11PyramidSortRPii
	.p2align	4, 0x90
_Z11PyramidSortRPii:                    # @_Z11PyramidSortRPii
.Lfunc_begin8:
	.loc	1 315 0 is_stmt 1               # D:\Code\University\algoritms\lab9\lab9.cpp:315:0
.seh_proc _Z11PyramidSortRPii
# %bb.0:
	subq	$56, %rsp
	.seh_stackalloc 56
	.seh_endprologue
	movq	%rcx, 48(%rsp)
	movl	%edx, 44(%rsp)
.Ltmp55:
	.loc	1 317 18 prologue_end           # D:\Code\University\algoritms\lab9\lab9.cpp:317:18
	movl	44(%rsp), %eax
	.loc	1 317 24 is_stmt 0              # D:\Code\University\algoritms\lab9\lab9.cpp:317:24
	movl	$2, %ecx
	cltd
	idivl	%ecx
	.loc	1 317 28                        # D:\Code\University\algoritms\lab9\lab9.cpp:317:28
	subl	$1, %eax
	.loc	1 317 14                        # D:\Code\University\algoritms\lab9\lab9.cpp:317:14
	movl	%eax, 40(%rsp)
.LBB8_1:                                # =>This Inner Loop Header: Depth=1
.Ltmp56:
	.loc	1 317 35                        # D:\Code\University\algoritms\lab9\lab9.cpp:317:35
	cmpl	$0, 40(%rsp)
.Ltmp57:
	.loc	1 317 5                         # D:\Code\University\algoritms\lab9\lab9.cpp:317:5
	jl	.LBB8_4
# %bb.2:                                #   in Loop: Header=BB8_1 Depth=1
.Ltmp58:
	.loc	1 319 21 is_stmt 1              # D:\Code\University\algoritms\lab9\lab9.cpp:319:21
	movq	48(%rsp), %rcx
	.loc	1 319 29 is_stmt 0              # D:\Code\University\algoritms\lab9\lab9.cpp:319:29
	movl	44(%rsp), %edx
	.loc	1 319 36                        # D:\Code\University\algoritms\lab9\lab9.cpp:319:36
	movl	40(%rsp), %r8d
	.loc	1 319 9                         # D:\Code\University\algoritms\lab9\lab9.cpp:319:9
	callq	_Z11ArrayToHeapRPiii
.Ltmp59:
# %bb.3:                                #   in Loop: Header=BB8_1 Depth=1
	.loc	1 317 42 is_stmt 1              # D:\Code\University\algoritms\lab9\lab9.cpp:317:42
	movl	40(%rsp), %eax
	addl	$-1, %eax
	movl	%eax, 40(%rsp)
	.loc	1 317 5 is_stmt 0               # D:\Code\University\algoritms\lab9\lab9.cpp:317:5
	jmp	.LBB8_1
.Ltmp60:
.LBB8_4:
	.loc	1 325 18 is_stmt 1              # D:\Code\University\algoritms\lab9\lab9.cpp:325:18
	movl	44(%rsp), %eax
	.loc	1 325 24 is_stmt 0              # D:\Code\University\algoritms\lab9\lab9.cpp:325:24
	subl	$1, %eax
	.loc	1 325 14                        # D:\Code\University\algoritms\lab9\lab9.cpp:325:14
	movl	%eax, 32(%rsp)
.LBB8_5:                                # =>This Inner Loop Header: Depth=1
.Ltmp61:
	.loc	1 325 31                        # D:\Code\University\algoritms\lab9\lab9.cpp:325:31
	cmpl	$0, 32(%rsp)
.Ltmp62:
	.loc	1 325 5                         # D:\Code\University\algoritms\lab9\lab9.cpp:325:5
	jl	.LBB8_8
# %bb.6:                                #   in Loop: Header=BB8_5 Depth=1
.Ltmp63:
	.loc	1 327 16 is_stmt 1              # D:\Code\University\algoritms\lab9\lab9.cpp:327:16
	movq	48(%rsp), %rax
	movq	(%rax), %rax
	movl	(%rax), %eax
	.loc	1 327 14 is_stmt 0              # D:\Code\University\algoritms\lab9\lab9.cpp:327:14
	movl	%eax, 36(%rsp)
	.loc	1 328 21 is_stmt 1              # D:\Code\University\algoritms\lab9\lab9.cpp:328:21
	movq	48(%rsp), %rax
	movq	(%rax), %rax
	movslq	32(%rsp), %rcx
	movl	(%rax,%rcx,4), %ecx
	.loc	1 328 9 is_stmt 0               # D:\Code\University\algoritms\lab9\lab9.cpp:328:9
	movq	48(%rsp), %rax
	movq	(%rax), %rax
	.loc	1 328 19                        # D:\Code\University\algoritms\lab9\lab9.cpp:328:19
	movl	%ecx, (%rax)
	.loc	1 329 21 is_stmt 1              # D:\Code\University\algoritms\lab9\lab9.cpp:329:21
	movl	36(%rsp), %edx
	.loc	1 329 9 is_stmt 0               # D:\Code\University\algoritms\lab9\lab9.cpp:329:9
	movq	48(%rsp), %rax
	movq	(%rax), %rax
	movslq	32(%rsp), %rcx
	.loc	1 329 19                        # D:\Code\University\algoritms\lab9\lab9.cpp:329:19
	movl	%edx, (%rax,%rcx,4)
	.loc	1 332 21 is_stmt 1              # D:\Code\University\algoritms\lab9\lab9.cpp:332:21
	movq	48(%rsp), %rcx
	.loc	1 332 29 is_stmt 0              # D:\Code\University\algoritms\lab9\lab9.cpp:332:29
	movl	32(%rsp), %edx
	.loc	1 332 9                         # D:\Code\University\algoritms\lab9\lab9.cpp:332:9
	xorl	%r8d, %r8d
	callq	_Z11ArrayToHeapRPiii
.Ltmp64:
# %bb.7:                                #   in Loop: Header=BB8_5 Depth=1
	.loc	1 325 38 is_stmt 1              # D:\Code\University\algoritms\lab9\lab9.cpp:325:38
	movl	32(%rsp), %eax
	addl	$-1, %eax
	movl	%eax, 32(%rsp)
	.loc	1 325 5 is_stmt 0               # D:\Code\University\algoritms\lab9\lab9.cpp:325:5
	jmp	.LBB8_5
.Ltmp65:
.LBB8_8:
	.loc	1 335 12 is_stmt 1              # D:\Code\University\algoritms\lab9\lab9.cpp:335:12
	movq	48(%rsp), %rax
	movq	(%rax), %rax
	.loc	1 335 5 is_stmt 0               # D:\Code\University\algoritms\lab9\lab9.cpp:335:5
	.loc	1 335 5 epilogue_begin          # D:\Code\University\algoritms\lab9\lab9.cpp:335:5
	addq	$56, %rsp
	retq
.Ltmp66:
.Lfunc_end8:
	.seh_endproc
                                        # -- End function
	.def	_Z10ShakerSortRPii;
	.scl	2;
	.type	32;
	.endef
	.globl	_Z10ShakerSortRPii              # -- Begin function _Z10ShakerSortRPii
	.p2align	4, 0x90
_Z10ShakerSortRPii:                     # @_Z10ShakerSortRPii
.Lfunc_begin9:
	.loc	1 339 0 is_stmt 1               # D:\Code\University\algoritms\lab9\lab9.cpp:339:0
.seh_proc _Z10ShakerSortRPii
# %bb.0:
	subq	$40, %rsp
	.seh_stackalloc 40
	.seh_endprologue
	movq	%rcx, 32(%rsp)
	movl	%edx, 28(%rsp)
.Ltmp67:
	.loc	1 340 9 prologue_end            # D:\Code\University\algoritms\lab9\lab9.cpp:340:9
	movl	$1, 24(%rsp)
	.loc	1 340 35 is_stmt 0              # D:\Code\University\algoritms\lab9\lab9.cpp:340:35
	movl	28(%rsp), %eax
	.loc	1 340 41                        # D:\Code\University\algoritms\lab9\lab9.cpp:340:41
	subl	$1, %eax
	.loc	1 340 23                        # D:\Code\University\algoritms\lab9\lab9.cpp:340:23
	movl	%eax, 20(%rsp)
	.loc	1 341 10 is_stmt 1              # D:\Code\University\algoritms\lab9\lab9.cpp:341:10
	movb	$1, 15(%rsp)
.LBB9_1:                                # =>This Loop Header: Depth=1
                                        #     Child Loop BB9_2 Depth 2
                                        #     Child Loop BB9_8 Depth 2
.Ltmp68:
	.loc	1 345 16                        # D:\Code\University\algoritms\lab9\lab9.cpp:345:16
	movb	$1, 15(%rsp)
.Ltmp69:
	.loc	1 348 22                        # D:\Code\University\algoritms\lab9\lab9.cpp:348:22
	movl	24(%rsp), %eax
	.loc	1 348 18 is_stmt 0              # D:\Code\University\algoritms\lab9\lab9.cpp:348:18
	movl	%eax, 8(%rsp)
.LBB9_2:                                #   Parent Loop BB9_1 Depth=1
                                        # =>  This Inner Loop Header: Depth=2
.Ltmp70:
	.loc	1 348 32                        # D:\Code\University\algoritms\lab9\lab9.cpp:348:32
	movl	8(%rsp), %eax
	.loc	1 348 34                        # D:\Code\University\algoritms\lab9\lab9.cpp:348:34
	cmpl	20(%rsp), %eax
.Ltmp71:
	.loc	1 348 9                         # D:\Code\University\algoritms\lab9\lab9.cpp:348:9
	jg	.LBB9_7
# %bb.3:                                #   in Loop: Header=BB9_2 Depth=2
.Ltmp72:
	.loc	1 350 17 is_stmt 1              # D:\Code\University\algoritms\lab9\lab9.cpp:350:17
	movq	32(%rsp), %rax
	movq	(%rax), %rax
	.loc	1 350 24 is_stmt 0              # D:\Code\University\algoritms\lab9\lab9.cpp:350:24
	movl	8(%rsp), %ecx
	.loc	1 350 26                        # D:\Code\University\algoritms\lab9\lab9.cpp:350:26
	subl	$1, %ecx
	.loc	1 350 17                        # D:\Code\University\algoritms\lab9\lab9.cpp:350:17
	movslq	%ecx, %rcx
	movl	(%rax,%rcx,4), %eax
	.loc	1 350 33                        # D:\Code\University\algoritms\lab9\lab9.cpp:350:33
	movq	32(%rsp), %rcx
	movq	(%rcx), %rcx
	movslq	8(%rsp), %rdx
	.loc	1 350 31                        # D:\Code\University\algoritms\lab9\lab9.cpp:350:31
	cmpl	(%rcx,%rdx,4), %eax
.Ltmp73:
	.loc	1 350 17                        # D:\Code\University\algoritms\lab9\lab9.cpp:350:17
	jle	.LBB9_5
# %bb.4:                                #   in Loop: Header=BB9_2 Depth=2
.Ltmp74:
	.loc	1 352 24 is_stmt 1              # D:\Code\University\algoritms\lab9\lab9.cpp:352:24
	movq	32(%rsp), %rax
	movq	(%rax), %rax
	.loc	1 352 31 is_stmt 0              # D:\Code\University\algoritms\lab9\lab9.cpp:352:31
	movl	8(%rsp), %ecx
	.loc	1 352 33                        # D:\Code\University\algoritms\lab9\lab9.cpp:352:33
	subl	$1, %ecx
	.loc	1 352 24                        # D:\Code\University\algoritms\lab9\lab9.cpp:352:24
	movslq	%ecx, %rcx
	movl	(%rax,%rcx,4), %eax
	.loc	1 352 22                        # D:\Code\University\algoritms\lab9\lab9.cpp:352:22
	movl	%eax, 16(%rsp)
	.loc	1 353 33 is_stmt 1              # D:\Code\University\algoritms\lab9\lab9.cpp:353:33
	movq	32(%rsp), %rax
	movq	(%rax), %rax
	movslq	8(%rsp), %rcx
	movl	(%rax,%rcx,4), %edx
	.loc	1 353 17 is_stmt 0              # D:\Code\University\algoritms\lab9\lab9.cpp:353:17
	movq	32(%rsp), %rax
	movq	(%rax), %rax
	.loc	1 353 24                        # D:\Code\University\algoritms\lab9\lab9.cpp:353:24
	movl	8(%rsp), %ecx
	.loc	1 353 26                        # D:\Code\University\algoritms\lab9\lab9.cpp:353:26
	subl	$1, %ecx
	.loc	1 353 17                        # D:\Code\University\algoritms\lab9\lab9.cpp:353:17
	movslq	%ecx, %rcx
	.loc	1 353 31                        # D:\Code\University\algoritms\lab9\lab9.cpp:353:31
	movl	%edx, (%rax,%rcx,4)
	.loc	1 354 29 is_stmt 1              # D:\Code\University\algoritms\lab9\lab9.cpp:354:29
	movl	16(%rsp), %edx
	.loc	1 354 17 is_stmt 0              # D:\Code\University\algoritms\lab9\lab9.cpp:354:17
	movq	32(%rsp), %rax
	movq	(%rax), %rax
	movslq	8(%rsp), %rcx
	.loc	1 354 27                        # D:\Code\University\algoritms\lab9\lab9.cpp:354:27
	movl	%edx, (%rax,%rcx,4)
	.loc	1 355 24 is_stmt 1              # D:\Code\University\algoritms\lab9\lab9.cpp:355:24
	movb	$0, 15(%rsp)
.Ltmp75:
.LBB9_5:                                #   in Loop: Header=BB9_2 Depth=2
	.loc	1 357 9                         # D:\Code\University\algoritms\lab9\lab9.cpp:357:9
	jmp	.LBB9_6
.Ltmp76:
.LBB9_6:                                #   in Loop: Header=BB9_2 Depth=2
	.loc	1 348 49                        # D:\Code\University\algoritms\lab9\lab9.cpp:348:49
	movl	8(%rsp), %eax
	addl	$1, %eax
	movl	%eax, 8(%rsp)
	.loc	1 348 9 is_stmt 0               # D:\Code\University\algoritms\lab9\lab9.cpp:348:9
	jmp	.LBB9_2
.Ltmp77:
.LBB9_7:                                #   in Loop: Header=BB9_1 Depth=1
	.loc	1 358 18 is_stmt 1              # D:\Code\University\algoritms\lab9\lab9.cpp:358:18
	movl	20(%rsp), %eax
	addl	$-1, %eax
	movl	%eax, 20(%rsp)
.Ltmp78:
	.loc	1 361 22                        # D:\Code\University\algoritms\lab9\lab9.cpp:361:22
	movl	20(%rsp), %eax
	.loc	1 361 18 is_stmt 0              # D:\Code\University\algoritms\lab9\lab9.cpp:361:18
	movl	%eax, 4(%rsp)
.LBB9_8:                                #   Parent Loop BB9_1 Depth=1
                                        # =>  This Inner Loop Header: Depth=2
.Ltmp79:
	.loc	1 361 33                        # D:\Code\University\algoritms\lab9\lab9.cpp:361:33
	movl	4(%rsp), %eax
	.loc	1 361 35                        # D:\Code\University\algoritms\lab9\lab9.cpp:361:35
	cmpl	24(%rsp), %eax
.Ltmp80:
	.loc	1 361 9                         # D:\Code\University\algoritms\lab9\lab9.cpp:361:9
	jl	.LBB9_13
# %bb.9:                                #   in Loop: Header=BB9_8 Depth=2
.Ltmp81:
	.loc	1 363 17 is_stmt 1              # D:\Code\University\algoritms\lab9\lab9.cpp:363:17
	movq	32(%rsp), %rax
	movq	(%rax), %rax
	movslq	4(%rsp), %rcx
	movl	(%rax,%rcx,4), %eax
	.loc	1 363 29 is_stmt 0              # D:\Code\University\algoritms\lab9\lab9.cpp:363:29
	movq	32(%rsp), %rcx
	movq	(%rcx), %rcx
	.loc	1 363 36                        # D:\Code\University\algoritms\lab9\lab9.cpp:363:36
	movl	4(%rsp), %edx
	.loc	1 363 38                        # D:\Code\University\algoritms\lab9\lab9.cpp:363:38
	subl	$1, %edx
	.loc	1 363 29                        # D:\Code\University\algoritms\lab9\lab9.cpp:363:29
	movslq	%edx, %rdx
	.loc	1 363 27                        # D:\Code\University\algoritms\lab9\lab9.cpp:363:27
	cmpl	(%rcx,%rdx,4), %eax
.Ltmp82:
	.loc	1 363 17                        # D:\Code\University\algoritms\lab9\lab9.cpp:363:17
	jge	.LBB9_11
# %bb.10:                               #   in Loop: Header=BB9_8 Depth=2
.Ltmp83:
	.loc	1 365 24 is_stmt 1              # D:\Code\University\algoritms\lab9\lab9.cpp:365:24
	movq	32(%rsp), %rax
	movq	(%rax), %rax
	movslq	4(%rsp), %rcx
	movl	(%rax,%rcx,4), %eax
	.loc	1 365 22 is_stmt 0              # D:\Code\University\algoritms\lab9\lab9.cpp:365:22
	movl	%eax, 16(%rsp)
	.loc	1 366 29 is_stmt 1              # D:\Code\University\algoritms\lab9\lab9.cpp:366:29
	movq	32(%rsp), %rax
	movq	(%rax), %rax
	.loc	1 366 36 is_stmt 0              # D:\Code\University\algoritms\lab9\lab9.cpp:366:36
	movl	4(%rsp), %ecx
	.loc	1 366 38                        # D:\Code\University\algoritms\lab9\lab9.cpp:366:38
	subl	$1, %ecx
	.loc	1 366 29                        # D:\Code\University\algoritms\lab9\lab9.cpp:366:29
	movslq	%ecx, %rcx
	movl	(%rax,%rcx,4), %edx
	.loc	1 366 17                        # D:\Code\University\algoritms\lab9\lab9.cpp:366:17
	movq	32(%rsp), %rax
	movq	(%rax), %rax
	movslq	4(%rsp), %rcx
	.loc	1 366 27                        # D:\Code\University\algoritms\lab9\lab9.cpp:366:27
	movl	%edx, (%rax,%rcx,4)
	.loc	1 367 33 is_stmt 1              # D:\Code\University\algoritms\lab9\lab9.cpp:367:33
	movl	16(%rsp), %edx
	.loc	1 367 17 is_stmt 0              # D:\Code\University\algoritms\lab9\lab9.cpp:367:17
	movq	32(%rsp), %rax
	movq	(%rax), %rax
	.loc	1 367 24                        # D:\Code\University\algoritms\lab9\lab9.cpp:367:24
	movl	4(%rsp), %ecx
	.loc	1 367 26                        # D:\Code\University\algoritms\lab9\lab9.cpp:367:26
	subl	$1, %ecx
	.loc	1 367 17                        # D:\Code\University\algoritms\lab9\lab9.cpp:367:17
	movslq	%ecx, %rcx
	.loc	1 367 31                        # D:\Code\University\algoritms\lab9\lab9.cpp:367:31
	movl	%edx, (%rax,%rcx,4)
	.loc	1 368 24 is_stmt 1              # D:\Code\University\algoritms\lab9\lab9.cpp:368:24
	movb	$0, 15(%rsp)
.Ltmp84:
.LBB9_11:                               #   in Loop: Header=BB9_8 Depth=2
	.loc	1 370 9                         # D:\Code\University\algoritms\lab9\lab9.cpp:370:9
	jmp	.LBB9_12
.Ltmp85:
.LBB9_12:                               #   in Loop: Header=BB9_8 Depth=2
	.loc	1 361 49                        # D:\Code\University\algoritms\lab9\lab9.cpp:361:49
	movl	4(%rsp), %eax
	addl	$-1, %eax
	movl	%eax, 4(%rsp)
	.loc	1 361 9 is_stmt 0               # D:\Code\University\algoritms\lab9\lab9.cpp:361:9
	jmp	.LBB9_8
.Ltmp86:
.LBB9_13:                               #   in Loop: Header=BB9_1 Depth=1
	.loc	1 371 17 is_stmt 1              # D:\Code\University\algoritms\lab9\lab9.cpp:371:17
	movl	24(%rsp), %eax
	addl	$1, %eax
	movl	%eax, 24(%rsp)
.Ltmp87:
# %bb.14:                               #   in Loop: Header=BB9_1 Depth=1
	.loc	1 373 14                        # D:\Code\University\algoritms\lab9\lab9.cpp:373:14
	movb	15(%rsp), %al
	andb	$1, %al
	movzbl	%al, %eax
	.loc	1 373 21 is_stmt 0              # D:\Code\University\algoritms\lab9\lab9.cpp:373:21
	cmpl	$0, %eax
.Ltmp88:
	.loc	1 373 5                         # D:\Code\University\algoritms\lab9\lab9.cpp:373:5
	je	.LBB9_1
.Ltmp89:
# %bb.15:
	.loc	1 375 12 is_stmt 1              # D:\Code\University\algoritms\lab9\lab9.cpp:375:12
	movq	32(%rsp), %rax
	movq	(%rax), %rax
	.loc	1 375 5 is_stmt 0               # D:\Code\University\algoritms\lab9\lab9.cpp:375:5
	.loc	1 375 5 epilogue_begin          # D:\Code\University\algoritms\lab9\lab9.cpp:375:5
	addq	$40, %rsp
	retq
.Ltmp90:
.Lfunc_end9:
	.seh_endproc
                                        # -- End function
	.def	_Z13arrayAutoTesti;
	.scl	2;
	.type	32;
	.endef
	.globl	_Z13arrayAutoTesti              # -- Begin function _Z13arrayAutoTesti
	.p2align	4, 0x90
_Z13arrayAutoTesti:                     # @_Z13arrayAutoTesti
.Lfunc_begin10:
	.loc	1 392 0 is_stmt 1               # D:\Code\University\algoritms\lab9\lab9.cpp:392:0
.seh_proc _Z13arrayAutoTesti
	.seh_handler __gxx_personality_seh0, @unwind, @except
# %bb.0:
	subq	$904, %rsp                      # imm = 0x388
	.seh_stackalloc 904
	.seh_endprologue
	movl	%ecx, 804(%rsp)
.Ltmp115:
	.loc	1 393 15 prologue_end           # D:\Code\University\algoritms\lab9\lab9.cpp:393:15
	movq	.refptr._ZSt4cout(%rip), %rcx
	leaq	.L.str.18(%rip), %rdx
	callq	_ZStlsISt11char_traitsIcEERSt13basic_ostreamIcT_ES5_PKc
	.loc	1 394 15                        # D:\Code\University\algoritms\lab9\lab9.cpp:394:15
	movl	$12, 800(%rsp)
	leaq	767(%rsp), %r9
	movq	%r9, 808(%rsp)
	movq	808(%rsp), %rax
	movq	%rax, 896(%rsp)
.Ltmp91:
	leaq	768(%rsp), %rcx
	movl	$188, %edx
	movb	$45, %r8b
	.loc	1 396 18                        # D:\Code\University\algoritms\lab9\lab9.cpp:396:18
	callq	_ZNSt7__cxx1112basic_stringIcSt11char_traitsIcESaIcEEC2IS3_EEycRKS3_
.Ltmp92:
	jmp	.LBB10_1
.LBB10_1:
.Ltmp94:
	.loc	1 396 15 is_stmt 0              # D:\Code\University\algoritms\lab9\lab9.cpp:396:15
	movq	.refptr._ZSt4cout(%rip), %rcx
	leaq	768(%rsp), %rdx
	callq	_ZStlsIcSt11char_traitsIcESaIcEERSt13basic_ostreamIT_T0_ES7_RKNSt7__cxx1112basic_stringIS4_S5_T1_EE
.Ltmp95:
	movq	%rax, 512(%rsp)                 # 8-byte Spill
	jmp	.LBB10_2
.LBB10_2:
.Ltmp96:
	.loc	1 0 15                          # D:\Code\University\algoritms\lab9\lab9.cpp:0:15
	movq	512(%rsp), %rcx                 # 8-byte Reload
	.loc	1 396 51                        # D:\Code\University\algoritms\lab9\lab9.cpp:396:51
	leaq	_ZSt4endlIcSt11char_traitsIcEERSt13basic_ostreamIT_T0_ES6_(%rip), %rdx
	callq	_ZNSolsEPFRSoS_E
.Ltmp97:
	jmp	.LBB10_3
.LBB10_3:
	.loc	1 0 51                          # D:\Code\University\algoritms\lab9\lab9.cpp:0:51
	leaq	768(%rsp), %rcx
	.loc	1 396 5                         # D:\Code\University\algoritms\lab9\lab9.cpp:396:5
	callq	_ZNSt7__cxx1112basic_stringIcSt11char_traitsIcESaIcEED1Ev
	leaq	767(%rsp), %rax
	movq	%rax, 832(%rsp)
	movq	832(%rsp), %rcx
.Ltmp116:
	.loc	9 182 39 is_stmt 1              # C:/mingw64/include/c++/14.2.0/bits/allocator.h:182:39
	callq	_ZNSt15__new_allocatorIcED2Ev
	movl	$6, %ecx
	movl	%ecx, 348(%rsp)                 # 4-byte Spill
.Ltmp117:
	.loc	1 398 18                        # D:\Code\University\algoritms\lab9\lab9.cpp:398:18
	callq	_ZSt4setwi
	movl	%eax, 744(%rsp)
	.loc	1 398 15 is_stmt 0              # D:\Code\University\algoritms\lab9\lab9.cpp:398:15
	movl	744(%rsp), %edx
	movq	.refptr._ZSt4cout(%rip), %rcx
	movq	%rcx, 352(%rsp)                 # 8-byte Spill
	callq	_ZStlsIcSt11char_traitsIcEERSt13basic_ostreamIT_T0_ES6_St5_Setw
	movq	%rax, %rcx
	movb	$32, %dl
	movb	%dl, 347(%rsp)                  # 1-byte Spill
	.loc	1 398 39                        # D:\Code\University\algoritms\lab9\lab9.cpp:398:39
	callq	_ZStlsISt11char_traitsIcEERSt13basic_ostreamIcT_ES5_c
	movq	%rax, %rcx
	.loc	1 398 46                        # D:\Code\University\algoritms\lab9\lab9.cpp:398:46
	leaq	.L.str.19(%rip), %rdx
	movq	%rdx, 496(%rsp)                 # 8-byte Spill
	callq	_ZStlsISt11char_traitsIcEERSt13basic_ostreamIcT_ES5_PKc
	movq	%rax, 248(%rsp)                 # 8-byte Spill
	movl	$12, %ecx
	movl	%ecx, 476(%rsp)                 # 4-byte Spill
	.loc	1 398 58                        # D:\Code\University\algoritms\lab9\lab9.cpp:398:58
	callq	_ZSt4setwi
	movq	248(%rsp), %rcx                 # 8-byte Reload
	movl	%eax, 740(%rsp)
	.loc	1 398 55                        # D:\Code\University\algoritms\lab9\lab9.cpp:398:55
	movl	740(%rsp), %edx
	callq	_ZStlsIcSt11char_traitsIcEERSt13basic_ostreamIT_T0_ES6_St5_Setw
	movb	347(%rsp), %dl                  # 1-byte Reload
	movq	%rax, %rcx
	.loc	1 398 75                        # D:\Code\University\algoritms\lab9\lab9.cpp:398:75
	callq	_ZStlsISt11char_traitsIcEERSt13basic_ostreamIcT_ES5_c
	movq	%rax, %rcx
	.loc	1 398 82                        # D:\Code\University\algoritms\lab9\lab9.cpp:398:82
	leaq	.L.str.20(%rip), %rdx
	movq	%rdx, 304(%rsp)                 # 8-byte Spill
	callq	_ZStlsISt11char_traitsIcEERSt13basic_ostreamIcT_ES5_PKc
	movq	%rax, 256(%rsp)                 # 8-byte Spill
	movl	$24, %ecx
	movl	%ecx, 316(%rsp)                 # 4-byte Spill
	.loc	1 398 94                        # D:\Code\University\algoritms\lab9\lab9.cpp:398:94
	callq	_ZSt4setwi
	movq	256(%rsp), %rcx                 # 8-byte Reload
	movl	%eax, 736(%rsp)
	.loc	1 398 91                        # D:\Code\University\algoritms\lab9\lab9.cpp:398:91
	movl	736(%rsp), %edx
	callq	_ZStlsIcSt11char_traitsIcEERSt13basic_ostreamIT_T0_ES6_St5_Setw
	movq	%rax, %rcx
	.loc	1 399 15 is_stmt 1              # D:\Code\University\algoritms\lab9\lab9.cpp:399:15
	leaq	.L.str.21(%rip), %rdx
	callq	_ZStlsISt11char_traitsIcEERSt13basic_ostreamIcT_ES5_PKc
	movq	%rax, %rcx
	.loc	1 399 36 is_stmt 0              # D:\Code\University\algoritms\lab9\lab9.cpp:399:36
	leaq	.L.str.22(%rip), %rdx
	movq	%rdx, 328(%rsp)                 # 8-byte Spill
	callq	_ZStlsISt11char_traitsIcEERSt13basic_ostreamIcT_ES5_PKc
	movl	476(%rsp), %ecx                 # 4-byte Reload
	movq	%rax, 264(%rsp)                 # 8-byte Spill
	.loc	1 399 51                        # D:\Code\University\algoritms\lab9\lab9.cpp:399:51
	callq	_ZSt4setwi
	movq	264(%rsp), %rcx                 # 8-byte Reload
	movl	%eax, 732(%rsp)
	.loc	1 399 48                        # D:\Code\University\algoritms\lab9\lab9.cpp:399:48
	movl	732(%rsp), %edx
	callq	_ZStlsIcSt11char_traitsIcEERSt13basic_ostreamIT_T0_ES6_St5_Setw
	movb	347(%rsp), %dl                  # 1-byte Reload
	movq	%rax, %rcx
	.loc	1 399 68                        # D:\Code\University\algoritms\lab9\lab9.cpp:399:68
	callq	_ZStlsISt11char_traitsIcEERSt13basic_ostreamIcT_ES5_c
	movq	496(%rsp), %rdx                 # 8-byte Reload
	movq	%rax, %rcx
	.loc	1 399 75                        # D:\Code\University\algoritms\lab9\lab9.cpp:399:75
	callq	_ZStlsISt11char_traitsIcEERSt13basic_ostreamIcT_ES5_PKc
	movl	476(%rsp), %ecx                 # 4-byte Reload
	movq	%rax, 272(%rsp)                 # 8-byte Spill
	.loc	1 399 87                        # D:\Code\University\algoritms\lab9\lab9.cpp:399:87
	callq	_ZSt4setwi
	movq	272(%rsp), %rcx                 # 8-byte Reload
	movl	%eax, 728(%rsp)
	.loc	1 399 84                        # D:\Code\University\algoritms\lab9\lab9.cpp:399:84
	movl	728(%rsp), %edx
	callq	_ZStlsIcSt11char_traitsIcEERSt13basic_ostreamIT_T0_ES6_St5_Setw
	movb	347(%rsp), %dl                  # 1-byte Reload
	movq	%rax, %rcx
	.loc	1 399 104                       # D:\Code\University\algoritms\lab9\lab9.cpp:399:104
	callq	_ZStlsISt11char_traitsIcEERSt13basic_ostreamIcT_ES5_c
	movq	304(%rsp), %rdx                 # 8-byte Reload
	movq	%rax, %rcx
	.loc	1 399 111                       # D:\Code\University\algoritms\lab9\lab9.cpp:399:111
	callq	_ZStlsISt11char_traitsIcEERSt13basic_ostreamIcT_ES5_PKc
	movl	316(%rsp), %ecx                 # 4-byte Reload
	movq	%rax, 280(%rsp)                 # 8-byte Spill
	.loc	1 400 18 is_stmt 1              # D:\Code\University\algoritms\lab9\lab9.cpp:400:18
	callq	_ZSt4setwi
	movq	280(%rsp), %rcx                 # 8-byte Reload
	movl	%eax, 724(%rsp)
	.loc	1 400 15 is_stmt 0              # D:\Code\University\algoritms\lab9\lab9.cpp:400:15
	movl	724(%rsp), %edx
	callq	_ZStlsIcSt11char_traitsIcEERSt13basic_ostreamIT_T0_ES6_St5_Setw
	movq	%rax, %rcx
	.loc	1 400 39                        # D:\Code\University\algoritms\lab9\lab9.cpp:400:39
	leaq	.L.str.23(%rip), %rdx
	callq	_ZStlsISt11char_traitsIcEERSt13basic_ostreamIcT_ES5_PKc
	movq	328(%rsp), %rdx                 # 8-byte Reload
	movq	%rax, %rcx
	.loc	1 400 63                        # D:\Code\University\algoritms\lab9\lab9.cpp:400:63
	callq	_ZStlsISt11char_traitsIcEERSt13basic_ostreamIcT_ES5_PKc
	movl	476(%rsp), %ecx                 # 4-byte Reload
	movq	%rax, 288(%rsp)                 # 8-byte Spill
	.loc	1 400 78                        # D:\Code\University\algoritms\lab9\lab9.cpp:400:78
	callq	_ZSt4setwi
	movq	288(%rsp), %rcx                 # 8-byte Reload
	movl	%eax, 720(%rsp)
	.loc	1 400 75                        # D:\Code\University\algoritms\lab9\lab9.cpp:400:75
	movl	720(%rsp), %edx
	callq	_ZStlsIcSt11char_traitsIcEERSt13basic_ostreamIT_T0_ES6_St5_Setw
	movb	347(%rsp), %dl                  # 1-byte Reload
	movq	%rax, %rcx
	.loc	1 400 95                        # D:\Code\University\algoritms\lab9\lab9.cpp:400:95
	callq	_ZStlsISt11char_traitsIcEERSt13basic_ostreamIcT_ES5_c
	movq	496(%rsp), %rdx                 # 8-byte Reload
	movq	%rax, %rcx
	.loc	1 400 102                       # D:\Code\University\algoritms\lab9\lab9.cpp:400:102
	callq	_ZStlsISt11char_traitsIcEERSt13basic_ostreamIcT_ES5_PKc
	movl	476(%rsp), %ecx                 # 4-byte Reload
	movq	%rax, 296(%rsp)                 # 8-byte Spill
	.loc	1 401 18 is_stmt 1              # D:\Code\University\algoritms\lab9\lab9.cpp:401:18
	callq	_ZSt4setwi
	movq	296(%rsp), %rcx                 # 8-byte Reload
	movl	%eax, 716(%rsp)
	.loc	1 401 15 is_stmt 0              # D:\Code\University\algoritms\lab9\lab9.cpp:401:15
	movl	716(%rsp), %edx
	callq	_ZStlsIcSt11char_traitsIcEERSt13basic_ostreamIT_T0_ES6_St5_Setw
	movb	347(%rsp), %dl                  # 1-byte Reload
	movq	%rax, %rcx
	.loc	1 401 35                        # D:\Code\University\algoritms\lab9\lab9.cpp:401:35
	callq	_ZStlsISt11char_traitsIcEERSt13basic_ostreamIcT_ES5_c
	movq	304(%rsp), %rdx                 # 8-byte Reload
	movq	%rax, %rcx
	.loc	1 401 42                        # D:\Code\University\algoritms\lab9\lab9.cpp:401:42
	callq	_ZStlsISt11char_traitsIcEERSt13basic_ostreamIcT_ES5_PKc
	movl	316(%rsp), %ecx                 # 4-byte Reload
	movq	%rax, 320(%rsp)                 # 8-byte Spill
	.loc	1 401 54                        # D:\Code\University\algoritms\lab9\lab9.cpp:401:54
	callq	_ZSt4setwi
	movq	320(%rsp), %rcx                 # 8-byte Reload
	movl	%eax, 712(%rsp)
	.loc	1 401 51                        # D:\Code\University\algoritms\lab9\lab9.cpp:401:51
	movl	712(%rsp), %edx
	callq	_ZStlsIcSt11char_traitsIcEERSt13basic_ostreamIT_T0_ES6_St5_Setw
	movq	%rax, %rcx
	.loc	1 401 75                        # D:\Code\University\algoritms\lab9\lab9.cpp:401:75
	leaq	.L.str.24(%rip), %rdx
	callq	_ZStlsISt11char_traitsIcEERSt13basic_ostreamIcT_ES5_PKc
	movq	328(%rsp), %rdx                 # 8-byte Reload
	movq	%rax, %rcx
	.loc	1 401 97                        # D:\Code\University\algoritms\lab9\lab9.cpp:401:97
	callq	_ZStlsISt11char_traitsIcEERSt13basic_ostreamIcT_ES5_PKc
	movl	476(%rsp), %ecx                 # 4-byte Reload
	movq	%rax, 336(%rsp)                 # 8-byte Spill
	.loc	1 402 18 is_stmt 1              # D:\Code\University\algoritms\lab9\lab9.cpp:402:18
	callq	_ZSt4setwi
	movq	336(%rsp), %rcx                 # 8-byte Reload
	movl	%eax, 708(%rsp)
	.loc	1 402 15 is_stmt 0              # D:\Code\University\algoritms\lab9\lab9.cpp:402:15
	movl	708(%rsp), %edx
	callq	_ZStlsIcSt11char_traitsIcEERSt13basic_ostreamIT_T0_ES6_St5_Setw
	movb	347(%rsp), %dl                  # 1-byte Reload
	movq	%rax, %rcx
	.loc	1 402 35                        # D:\Code\University\algoritms\lab9\lab9.cpp:402:35
	callq	_ZStlsISt11char_traitsIcEERSt13basic_ostreamIcT_ES5_c
	movq	496(%rsp), %rdx                 # 8-byte Reload
	movq	%rax, %rcx
	.loc	1 402 42                        # D:\Code\University\algoritms\lab9\lab9.cpp:402:42
	callq	_ZStlsISt11char_traitsIcEERSt13basic_ostreamIcT_ES5_PKc
	movq	%rax, %rcx
	.loc	1 402 51                        # D:\Code\University\algoritms\lab9\lab9.cpp:402:51
	leaq	_ZSt4endlIcSt11char_traitsIcEERSt13basic_ostreamIT_T0_ES6_(%rip), %rdx
	movq	%rdx, 504(%rsp)                 # 8-byte Spill
	callq	_ZNSolsEPFRSoS_E
	movl	348(%rsp), %ecx                 # 4-byte Reload
	.loc	1 405 18 is_stmt 1              # D:\Code\University\algoritms\lab9\lab9.cpp:405:18
	callq	_ZSt4setwi
	movq	352(%rsp), %rcx                 # 8-byte Reload
	movl	%eax, 704(%rsp)
	.loc	1 405 15 is_stmt 0              # D:\Code\University\algoritms\lab9\lab9.cpp:405:15
	movl	704(%rsp), %edx
	callq	_ZStlsIcSt11char_traitsIcEERSt13basic_ostreamIT_T0_ES6_St5_Setw
	movq	%rax, %rcx
	.loc	1 405 39                        # D:\Code\University\algoritms\lab9\lab9.cpp:405:39
	leaq	.L.str.25(%rip), %rdx
	callq	_ZStlsISt11char_traitsIcEERSt13basic_ostreamIcT_ES5_PKc
	movq	496(%rsp), %rdx                 # 8-byte Reload
	movq	%rax, %rcx
	.loc	1 405 50                        # D:\Code\University\algoritms\lab9\lab9.cpp:405:50
	callq	_ZStlsISt11char_traitsIcEERSt13basic_ostreamIcT_ES5_PKc
	movl	476(%rsp), %ecx                 # 4-byte Reload
	movq	%rax, 360(%rsp)                 # 8-byte Spill
	.loc	1 405 62                        # D:\Code\University\algoritms\lab9\lab9.cpp:405:62
	callq	_ZSt4setwi
	movq	360(%rsp), %rcx                 # 8-byte Reload
	movl	%eax, 700(%rsp)
	.loc	1 405 59                        # D:\Code\University\algoritms\lab9\lab9.cpp:405:59
	movl	700(%rsp), %edx
	callq	_ZStlsIcSt11char_traitsIcEERSt13basic_ostreamIT_T0_ES6_St5_Setw
	movq	%rax, %rcx
	.loc	1 405 79                        # D:\Code\University\algoritms\lab9\lab9.cpp:405:79
	leaq	.L.str.26(%rip), %rdx
	movq	%rdx, 432(%rsp)                 # 8-byte Spill
	callq	_ZStlsISt11char_traitsIcEERSt13basic_ostreamIcT_ES5_PKc
	movq	496(%rsp), %rdx                 # 8-byte Reload
	movq	%rax, %rcx
	.loc	1 405 90                        # D:\Code\University\algoritms\lab9\lab9.cpp:405:90
	callq	_ZStlsISt11char_traitsIcEERSt13basic_ostreamIcT_ES5_PKc
	movl	476(%rsp), %ecx                 # 4-byte Reload
	movq	%rax, 368(%rsp)                 # 8-byte Spill
	.loc	1 405 102                       # D:\Code\University\algoritms\lab9\lab9.cpp:405:102
	callq	_ZSt4setwi
	movq	368(%rsp), %rcx                 # 8-byte Reload
	movl	%eax, 696(%rsp)
	.loc	1 405 99                        # D:\Code\University\algoritms\lab9\lab9.cpp:405:99
	movl	696(%rsp), %edx
	callq	_ZStlsIcSt11char_traitsIcEERSt13basic_ostreamIT_T0_ES6_St5_Setw
	movq	%rax, %rcx
	.loc	1 406 15 is_stmt 1              # D:\Code\University\algoritms\lab9\lab9.cpp:406:15
	leaq	.L.str.27(%rip), %rdx
	movq	%rdx, 448(%rsp)                 # 8-byte Spill
	callq	_ZStlsISt11char_traitsIcEERSt13basic_ostreamIcT_ES5_PKc
	movq	496(%rsp), %rdx                 # 8-byte Reload
	movq	%rax, %rcx
	.loc	1 406 26 is_stmt 0              # D:\Code\University\algoritms\lab9\lab9.cpp:406:26
	callq	_ZStlsISt11char_traitsIcEERSt13basic_ostreamIcT_ES5_PKc
	movl	476(%rsp), %ecx                 # 4-byte Reload
	movq	%rax, 376(%rsp)                 # 8-byte Spill
	.loc	1 406 38                        # D:\Code\University\algoritms\lab9\lab9.cpp:406:38
	callq	_ZSt4setwi
	movq	376(%rsp), %rcx                 # 8-byte Reload
	movl	%eax, 692(%rsp)
	.loc	1 406 35                        # D:\Code\University\algoritms\lab9\lab9.cpp:406:35
	movl	692(%rsp), %edx
	callq	_ZStlsIcSt11char_traitsIcEERSt13basic_ostreamIT_T0_ES6_St5_Setw
	movq	%rax, %rcx
	.loc	1 406 55                        # D:\Code\University\algoritms\lab9\lab9.cpp:406:55
	leaq	.L.str.28(%rip), %rdx
	movq	%rdx, 464(%rsp)                 # 8-byte Spill
	callq	_ZStlsISt11char_traitsIcEERSt13basic_ostreamIcT_ES5_PKc
	movq	496(%rsp), %rdx                 # 8-byte Reload
	movq	%rax, %rcx
	.loc	1 406 68                        # D:\Code\University\algoritms\lab9\lab9.cpp:406:68
	callq	_ZStlsISt11char_traitsIcEERSt13basic_ostreamIcT_ES5_PKc
	movl	476(%rsp), %ecx                 # 4-byte Reload
	movq	%rax, 384(%rsp)                 # 8-byte Spill
	.loc	1 406 80                        # D:\Code\University\algoritms\lab9\lab9.cpp:406:80
	callq	_ZSt4setwi
	movq	384(%rsp), %rcx                 # 8-byte Reload
	movl	%eax, 688(%rsp)
	.loc	1 406 77                        # D:\Code\University\algoritms\lab9\lab9.cpp:406:77
	movl	688(%rsp), %edx
	callq	_ZStlsIcSt11char_traitsIcEERSt13basic_ostreamIT_T0_ES6_St5_Setw
	movq	%rax, %rcx
	.loc	1 406 97                        # D:\Code\University\algoritms\lab9\lab9.cpp:406:97
	leaq	.L.str.29(%rip), %rdx
	movq	%rdx, 488(%rsp)                 # 8-byte Spill
	callq	_ZStlsISt11char_traitsIcEERSt13basic_ostreamIcT_ES5_PKc
	movq	496(%rsp), %rdx                 # 8-byte Reload
	movq	%rax, %rcx
	.loc	1 406 109                       # D:\Code\University\algoritms\lab9\lab9.cpp:406:109
	callq	_ZStlsISt11char_traitsIcEERSt13basic_ostreamIcT_ES5_PKc
	movl	476(%rsp), %ecx                 # 4-byte Reload
	movq	%rax, 392(%rsp)                 # 8-byte Spill
	.loc	1 407 18 is_stmt 1              # D:\Code\University\algoritms\lab9\lab9.cpp:407:18
	callq	_ZSt4setwi
	movq	392(%rsp), %rcx                 # 8-byte Reload
	movl	%eax, 684(%rsp)
	.loc	1 407 15 is_stmt 0              # D:\Code\University\algoritms\lab9\lab9.cpp:407:15
	movl	684(%rsp), %edx
	callq	_ZStlsIcSt11char_traitsIcEERSt13basic_ostreamIT_T0_ES6_St5_Setw
	movq	432(%rsp), %rdx                 # 8-byte Reload
	movq	%rax, %rcx
	.loc	1 407 35                        # D:\Code\University\algoritms\lab9\lab9.cpp:407:35
	callq	_ZStlsISt11char_traitsIcEERSt13basic_ostreamIcT_ES5_PKc
	movq	496(%rsp), %rdx                 # 8-byte Reload
	movq	%rax, %rcx
	.loc	1 407 46                        # D:\Code\University\algoritms\lab9\lab9.cpp:407:46
	callq	_ZStlsISt11char_traitsIcEERSt13basic_ostreamIcT_ES5_PKc
	movl	476(%rsp), %ecx                 # 4-byte Reload
	movq	%rax, 400(%rsp)                 # 8-byte Spill
	.loc	1 407 58                        # D:\Code\University\algoritms\lab9\lab9.cpp:407:58
	callq	_ZSt4setwi
	movq	400(%rsp), %rcx                 # 8-byte Reload
	movl	%eax, 680(%rsp)
	.loc	1 407 55                        # D:\Code\University\algoritms\lab9\lab9.cpp:407:55
	movl	680(%rsp), %edx
	callq	_ZStlsIcSt11char_traitsIcEERSt13basic_ostreamIT_T0_ES6_St5_Setw
	movq	448(%rsp), %rdx                 # 8-byte Reload
	movq	%rax, %rcx
	.loc	1 407 75                        # D:\Code\University\algoritms\lab9\lab9.cpp:407:75
	callq	_ZStlsISt11char_traitsIcEERSt13basic_ostreamIcT_ES5_PKc
	movq	496(%rsp), %rdx                 # 8-byte Reload
	movq	%rax, %rcx
	.loc	1 407 86                        # D:\Code\University\algoritms\lab9\lab9.cpp:407:86
	callq	_ZStlsISt11char_traitsIcEERSt13basic_ostreamIcT_ES5_PKc
	movl	476(%rsp), %ecx                 # 4-byte Reload
	movq	%rax, 408(%rsp)                 # 8-byte Spill
	.loc	1 407 98                        # D:\Code\University\algoritms\lab9\lab9.cpp:407:98
	callq	_ZSt4setwi
	movq	408(%rsp), %rcx                 # 8-byte Reload
	movl	%eax, 676(%rsp)
	.loc	1 407 95                        # D:\Code\University\algoritms\lab9\lab9.cpp:407:95
	movl	676(%rsp), %edx
	callq	_ZStlsIcSt11char_traitsIcEERSt13basic_ostreamIT_T0_ES6_St5_Setw
	movq	464(%rsp), %rdx                 # 8-byte Reload
	movq	%rax, %rcx
	.loc	1 408 15 is_stmt 1              # D:\Code\University\algoritms\lab9\lab9.cpp:408:15
	callq	_ZStlsISt11char_traitsIcEERSt13basic_ostreamIcT_ES5_PKc
	movq	496(%rsp), %rdx                 # 8-byte Reload
	movq	%rax, %rcx
	.loc	1 408 28 is_stmt 0              # D:\Code\University\algoritms\lab9\lab9.cpp:408:28
	callq	_ZStlsISt11char_traitsIcEERSt13basic_ostreamIcT_ES5_PKc
	movl	476(%rsp), %ecx                 # 4-byte Reload
	movq	%rax, 416(%rsp)                 # 8-byte Spill
	.loc	1 408 40                        # D:\Code\University\algoritms\lab9\lab9.cpp:408:40
	callq	_ZSt4setwi
	movq	416(%rsp), %rcx                 # 8-byte Reload
	movl	%eax, 672(%rsp)
	.loc	1 408 37                        # D:\Code\University\algoritms\lab9\lab9.cpp:408:37
	movl	672(%rsp), %edx
	callq	_ZStlsIcSt11char_traitsIcEERSt13basic_ostreamIT_T0_ES6_St5_Setw
	movq	488(%rsp), %rdx                 # 8-byte Reload
	movq	%rax, %rcx
	.loc	1 408 57                        # D:\Code\University\algoritms\lab9\lab9.cpp:408:57
	callq	_ZStlsISt11char_traitsIcEERSt13basic_ostreamIcT_ES5_PKc
	movq	496(%rsp), %rdx                 # 8-byte Reload
	movq	%rax, %rcx
	.loc	1 408 69                        # D:\Code\University\algoritms\lab9\lab9.cpp:408:69
	callq	_ZStlsISt11char_traitsIcEERSt13basic_ostreamIcT_ES5_PKc
	movl	476(%rsp), %ecx                 # 4-byte Reload
	movq	%rax, 424(%rsp)                 # 8-byte Spill
	.loc	1 408 81                        # D:\Code\University\algoritms\lab9\lab9.cpp:408:81
	callq	_ZSt4setwi
	movq	424(%rsp), %rcx                 # 8-byte Reload
	movl	%eax, 668(%rsp)
	.loc	1 408 78                        # D:\Code\University\algoritms\lab9\lab9.cpp:408:78
	movl	668(%rsp), %edx
	callq	_ZStlsIcSt11char_traitsIcEERSt13basic_ostreamIT_T0_ES6_St5_Setw
	movq	432(%rsp), %rdx                 # 8-byte Reload
	movq	%rax, %rcx
	.loc	1 408 98                        # D:\Code\University\algoritms\lab9\lab9.cpp:408:98
	callq	_ZStlsISt11char_traitsIcEERSt13basic_ostreamIcT_ES5_PKc
	movq	496(%rsp), %rdx                 # 8-byte Reload
	movq	%rax, %rcx
	.loc	1 408 109                       # D:\Code\University\algoritms\lab9\lab9.cpp:408:109
	callq	_ZStlsISt11char_traitsIcEERSt13basic_ostreamIcT_ES5_PKc
	movl	476(%rsp), %ecx                 # 4-byte Reload
	movq	%rax, 440(%rsp)                 # 8-byte Spill
	.loc	1 409 18 is_stmt 1              # D:\Code\University\algoritms\lab9\lab9.cpp:409:18
	callq	_ZSt4setwi
	movq	440(%rsp), %rcx                 # 8-byte Reload
	movl	%eax, 664(%rsp)
	.loc	1 409 15 is_stmt 0              # D:\Code\University\algoritms\lab9\lab9.cpp:409:15
	movl	664(%rsp), %edx
	callq	_ZStlsIcSt11char_traitsIcEERSt13basic_ostreamIT_T0_ES6_St5_Setw
	movq	448(%rsp), %rdx                 # 8-byte Reload
	movq	%rax, %rcx
	.loc	1 409 35                        # D:\Code\University\algoritms\lab9\lab9.cpp:409:35
	callq	_ZStlsISt11char_traitsIcEERSt13basic_ostreamIcT_ES5_PKc
	movq	496(%rsp), %rdx                 # 8-byte Reload
	movq	%rax, %rcx
	.loc	1 409 46                        # D:\Code\University\algoritms\lab9\lab9.cpp:409:46
	callq	_ZStlsISt11char_traitsIcEERSt13basic_ostreamIcT_ES5_PKc
	movl	476(%rsp), %ecx                 # 4-byte Reload
	movq	%rax, 456(%rsp)                 # 8-byte Spill
	.loc	1 409 58                        # D:\Code\University\algoritms\lab9\lab9.cpp:409:58
	callq	_ZSt4setwi
	movq	456(%rsp), %rcx                 # 8-byte Reload
	movl	%eax, 660(%rsp)
	.loc	1 409 55                        # D:\Code\University\algoritms\lab9\lab9.cpp:409:55
	movl	660(%rsp), %edx
	callq	_ZStlsIcSt11char_traitsIcEERSt13basic_ostreamIT_T0_ES6_St5_Setw
	movq	464(%rsp), %rdx                 # 8-byte Reload
	movq	%rax, %rcx
	.loc	1 409 75                        # D:\Code\University\algoritms\lab9\lab9.cpp:409:75
	callq	_ZStlsISt11char_traitsIcEERSt13basic_ostreamIcT_ES5_PKc
	movq	496(%rsp), %rdx                 # 8-byte Reload
	movq	%rax, %rcx
	.loc	1 409 88                        # D:\Code\University\algoritms\lab9\lab9.cpp:409:88
	callq	_ZStlsISt11char_traitsIcEERSt13basic_ostreamIcT_ES5_PKc
	movl	476(%rsp), %ecx                 # 4-byte Reload
	movq	%rax, 480(%rsp)                 # 8-byte Spill
	.loc	1 409 100                       # D:\Code\University\algoritms\lab9\lab9.cpp:409:100
	callq	_ZSt4setwi
	movq	480(%rsp), %rcx                 # 8-byte Reload
	movl	%eax, 656(%rsp)
	.loc	1 409 97                        # D:\Code\University\algoritms\lab9\lab9.cpp:409:97
	movl	656(%rsp), %edx
	callq	_ZStlsIcSt11char_traitsIcEERSt13basic_ostreamIT_T0_ES6_St5_Setw
	movq	488(%rsp), %rdx                 # 8-byte Reload
	movq	%rax, %rcx
	.loc	1 410 15 is_stmt 1              # D:\Code\University\algoritms\lab9\lab9.cpp:410:15
	callq	_ZStlsISt11char_traitsIcEERSt13basic_ostreamIcT_ES5_PKc
	movq	496(%rsp), %rdx                 # 8-byte Reload
	movq	%rax, %rcx
	.loc	1 410 27 is_stmt 0              # D:\Code\University\algoritms\lab9\lab9.cpp:410:27
	callq	_ZStlsISt11char_traitsIcEERSt13basic_ostreamIcT_ES5_PKc
	movq	504(%rsp), %rdx                 # 8-byte Reload
	movq	%rax, %rcx
	.loc	1 410 36                        # D:\Code\University\algoritms\lab9\lab9.cpp:410:36
	callq	_ZNSolsEPFRSoS_E
	leaq	623(%rsp), %r9
	movq	%r9, 816(%rsp)
	movq	816(%rsp), %rax
	movq	%rax, 888(%rsp)
.Ltmp99:
	leaq	624(%rsp), %rcx
	movl	$188, %edx
	movb	$45, %r8b
	.loc	1 413 18 is_stmt 1              # D:\Code\University\algoritms\lab9\lab9.cpp:413:18
	callq	_ZNSt7__cxx1112basic_stringIcSt11char_traitsIcESaIcEEC2IS3_EEycRKS3_
.Ltmp100:
	jmp	.LBB10_4
.LBB10_4:
.Ltmp102:
	.loc	1 413 15 is_stmt 0              # D:\Code\University\algoritms\lab9\lab9.cpp:413:15
	movq	.refptr._ZSt4cout(%rip), %rcx
	leaq	624(%rsp), %rdx
	callq	_ZStlsIcSt11char_traitsIcESaIcEERSt13basic_ostreamIT_T0_ES7_RKNSt7__cxx1112basic_stringIS4_S5_T1_EE
.Ltmp103:
	movq	%rax, 240(%rsp)                 # 8-byte Spill
	jmp	.LBB10_5
.LBB10_5:
.Ltmp104:
	.loc	1 0 15                          # D:\Code\University\algoritms\lab9\lab9.cpp:0:15
	movq	240(%rsp), %rcx                 # 8-byte Reload
	.loc	1 413 51                        # D:\Code\University\algoritms\lab9\lab9.cpp:413:51
	leaq	_ZSt4endlIcSt11char_traitsIcEERSt13basic_ostreamIT_T0_ES6_(%rip), %rdx
	callq	_ZNSolsEPFRSoS_E
.Ltmp105:
	jmp	.LBB10_6
.LBB10_6:
	.loc	1 413 5                         # D:\Code\University\algoritms\lab9\lab9.cpp:413:5
	leaq	624(%rsp), %rcx
	callq	_ZNSt7__cxx1112basic_stringIcSt11char_traitsIcESaIcEED1Ev
	leaq	623(%rsp), %rax
	movq	%rax, 848(%rsp)
	movq	848(%rsp), %rcx
.Ltmp118:
	.loc	9 182 39 is_stmt 1              # C:/mingw64/include/c++/14.2.0/bits/allocator.h:182:39
	callq	_ZNSt15__new_allocatorIcED2Ev
.Ltmp119:
	.loc	1 414 14                        # D:\Code\University\algoritms\lab9\lab9.cpp:414:14
	movl	$100, 616(%rsp)
.LBB10_7:                               # =>This Inner Loop Header: Depth=1
.Ltmp120:
	.loc	1 414 23 is_stmt 0              # D:\Code\University\algoritms\lab9\lab9.cpp:414:23
	movl	616(%rsp), %eax
	.loc	1 414 25                        # D:\Code\University\algoritms\lab9\lab9.cpp:414:25
	cmpl	804(%rsp), %eax
.Ltmp121:
	.loc	1 414 5                         # D:\Code\University\algoritms\lab9\lab9.cpp:414:5
	jg	.LBB10_16
# %bb.8:                                #   in Loop: Header=BB10_7 Depth=1
.Ltmp122:
	.loc	1 416 20 is_stmt 1              # D:\Code\University\algoritms\lab9\lab9.cpp:416:20
	movl	616(%rsp), %eax
	.loc	1 416 13 is_stmt 0              # D:\Code\University\algoritms\lab9\lab9.cpp:416:13
	movl	%eax, 612(%rsp)
	.loc	1 417 22 is_stmt 1              # D:\Code\University\algoritms\lab9\lab9.cpp:417:22
	movl	$6, %ecx
	callq	_ZSt4setwi
	movl	%eax, 608(%rsp)
	.loc	1 417 19 is_stmt 0              # D:\Code\University\algoritms\lab9\lab9.cpp:417:19
	movl	608(%rsp), %edx
	movq	.refptr._ZSt4cout(%rip), %rcx
	callq	_ZStlsIcSt11char_traitsIcEERSt13basic_ostreamIT_T0_ES6_St5_Setw
	movq	%rax, %rcx
	.loc	1 417 46                        # D:\Code\University\algoritms\lab9\lab9.cpp:417:46
	movl	616(%rsp), %edx
	.loc	1 417 43                        # D:\Code\University\algoritms\lab9\lab9.cpp:417:43
	callq	_ZNSolsEi
	movq	%rax, %rcx
	.loc	1 417 48                        # D:\Code\University\algoritms\lab9\lab9.cpp:417:48
	leaq	.L.str.19(%rip), %rdx
	callq	_ZStlsISt11char_traitsIcEERSt13basic_ostreamIcT_ES5_PKc
	movq	%rax, 48(%rsp)                  # 8-byte Spill
	.loc	1 417 60                        # D:\Code\University\algoritms\lab9\lab9.cpp:417:60
	movl	$12, %ecx
	callq	_ZSt4setwi
	movq	48(%rsp), %rcx                  # 8-byte Reload
	movl	%eax, 604(%rsp)
	.loc	1 417 57                        # D:\Code\University\algoritms\lab9\lab9.cpp:417:57
	movl	604(%rsp), %edx
	callq	_ZStlsIcSt11char_traitsIcEERSt13basic_ostreamIT_T0_ES6_St5_Setw
	movq	%rax, 56(%rsp)                  # 8-byte Spill
	.loc	1 418 73 is_stmt 1              # D:\Code\University\algoritms\lab9\lab9.cpp:418:73
	movl	612(%rsp), %r8d
	.loc	1 418 22 is_stmt 0              # D:\Code\University\algoritms\lab9\lab9.cpp:418:22
	leaq	_Z9QuickSortRPii(%rip), %rcx
	leaq	_Z17FillArrayBestCaseRPii(%rip), %rdx
	callq	_Z20autoSortTestForArrayPFPiRS_iEPFvS0_iEi
	movq	56(%rsp), %rcx                  # 8-byte Reload
	movq	%rax, %rdx
	.loc	1 418 19                        # D:\Code\University\algoritms\lab9\lab9.cpp:418:19
	callq	_ZNSolsEx
	movq	%rax, %rcx
	.loc	1 418 79                        # D:\Code\University\algoritms\lab9\lab9.cpp:418:79
	leaq	.L.str.19(%rip), %rdx
	callq	_ZStlsISt11char_traitsIcEERSt13basic_ostreamIcT_ES5_PKc
	movq	%rax, 64(%rsp)                  # 8-byte Spill
	.loc	1 418 91                        # D:\Code\University\algoritms\lab9\lab9.cpp:418:91
	movl	$12, %ecx
	callq	_ZSt4setwi
	movq	64(%rsp), %rcx                  # 8-byte Reload
	movl	%eax, 600(%rsp)
	.loc	1 418 88                        # D:\Code\University\algoritms\lab9\lab9.cpp:418:88
	movl	600(%rsp), %edx
	callq	_ZStlsIcSt11char_traitsIcEERSt13basic_ostreamIT_T0_ES6_St5_Setw
	movq	%rax, 72(%rsp)                  # 8-byte Spill
	.loc	1 419 73 is_stmt 1              # D:\Code\University\algoritms\lab9\lab9.cpp:419:73
	movl	612(%rsp), %r8d
	.loc	1 419 22 is_stmt 0              # D:\Code\University\algoritms\lab9\lab9.cpp:419:22
	leaq	_Z9ShellSortRPii(%rip), %rcx
	leaq	_Z17FillArrayBestCaseRPii(%rip), %rdx
	callq	_Z20autoSortTestForArrayPFPiRS_iEPFvS0_iEi
	movq	72(%rsp), %rcx                  # 8-byte Reload
	movq	%rax, %rdx
	.loc	1 419 19                        # D:\Code\University\algoritms\lab9\lab9.cpp:419:19
	callq	_ZNSolsEx
	movq	%rax, %rcx
	.loc	1 419 79                        # D:\Code\University\algoritms\lab9\lab9.cpp:419:79
	leaq	.L.str.19(%rip), %rdx
	callq	_ZStlsISt11char_traitsIcEERSt13basic_ostreamIcT_ES5_PKc
	movq	%rax, 80(%rsp)                  # 8-byte Spill
	.loc	1 419 91                        # D:\Code\University\algoritms\lab9\lab9.cpp:419:91
	movl	$12, %ecx
	callq	_ZSt4setwi
	movq	80(%rsp), %rcx                  # 8-byte Reload
	movl	%eax, 596(%rsp)
	.loc	1 419 88                        # D:\Code\University\algoritms\lab9\lab9.cpp:419:88
	movl	596(%rsp), %edx
	callq	_ZStlsIcSt11char_traitsIcEERSt13basic_ostreamIT_T0_ES6_St5_Setw
	movq	%rax, 88(%rsp)                  # 8-byte Spill
	.loc	1 420 75 is_stmt 1              # D:\Code\University\algoritms\lab9\lab9.cpp:420:75
	movl	612(%rsp), %r8d
	.loc	1 420 22 is_stmt 0              # D:\Code\University\algoritms\lab9\lab9.cpp:420:22
	leaq	_Z11PyramidSortRPii(%rip), %rcx
	leaq	_Z17FillArrayBestCaseRPii(%rip), %rdx
	callq	_Z20autoSortTestForArrayPFPiRS_iEPFvS0_iEi
	movq	88(%rsp), %rcx                  # 8-byte Reload
	movq	%rax, %rdx
	.loc	1 420 19                        # D:\Code\University\algoritms\lab9\lab9.cpp:420:19
	callq	_ZNSolsEx
	movq	%rax, %rcx
	.loc	1 420 81                        # D:\Code\University\algoritms\lab9\lab9.cpp:420:81
	leaq	.L.str.19(%rip), %rdx
	callq	_ZStlsISt11char_traitsIcEERSt13basic_ostreamIcT_ES5_PKc
	movq	%rax, 96(%rsp)                  # 8-byte Spill
	.loc	1 420 93                        # D:\Code\University\algoritms\lab9\lab9.cpp:420:93
	movl	$12, %ecx
	callq	_ZSt4setwi
	movq	96(%rsp), %rcx                  # 8-byte Reload
	movl	%eax, 592(%rsp)
	.loc	1 420 90                        # D:\Code\University\algoritms\lab9\lab9.cpp:420:90
	movl	592(%rsp), %edx
	callq	_ZStlsIcSt11char_traitsIcEERSt13basic_ostreamIT_T0_ES6_St5_Setw
	movq	%rax, 104(%rsp)                 # 8-byte Spill
	.loc	1 421 74 is_stmt 1              # D:\Code\University\algoritms\lab9\lab9.cpp:421:74
	movl	612(%rsp), %r8d
	.loc	1 421 22 is_stmt 0              # D:\Code\University\algoritms\lab9\lab9.cpp:421:22
	leaq	_Z10ShakerSortRPii(%rip), %rcx
	leaq	_Z17FillArrayBestCaseRPii(%rip), %rdx
	callq	_Z20autoSortTestForArrayPFPiRS_iEPFvS0_iEi
	movq	104(%rsp), %rcx                 # 8-byte Reload
	movq	%rax, %rdx
	.loc	1 421 19                        # D:\Code\University\algoritms\lab9\lab9.cpp:421:19
	callq	_ZNSolsEx
	movq	%rax, %rcx
	.loc	1 421 80                        # D:\Code\University\algoritms\lab9\lab9.cpp:421:80
	leaq	.L.str.19(%rip), %rdx
	callq	_ZStlsISt11char_traitsIcEERSt13basic_ostreamIcT_ES5_PKc
	movq	%rax, 112(%rsp)                 # 8-byte Spill
	.loc	1 421 92                        # D:\Code\University\algoritms\lab9\lab9.cpp:421:92
	movl	$12, %ecx
	callq	_ZSt4setwi
	movq	112(%rsp), %rcx                 # 8-byte Reload
	movl	%eax, 588(%rsp)
	.loc	1 421 89                        # D:\Code\University\algoritms\lab9\lab9.cpp:421:89
	movl	588(%rsp), %edx
	callq	_ZStlsIcSt11char_traitsIcEERSt13basic_ostreamIT_T0_ES6_St5_Setw
	movq	%rax, 120(%rsp)                 # 8-byte Spill
	.loc	1 422 75 is_stmt 1              # D:\Code\University\algoritms\lab9\lab9.cpp:422:75
	movl	612(%rsp), %r8d
	.loc	1 422 22 is_stmt 0              # D:\Code\University\algoritms\lab9\lab9.cpp:422:22
	leaq	_Z9QuickSortRPii(%rip), %rcx
	leaq	_Z19FillArrayMiddleCaseRPii(%rip), %rdx
	callq	_Z20autoSortTestForArrayPFPiRS_iEPFvS0_iEi
	movq	120(%rsp), %rcx                 # 8-byte Reload
	movq	%rax, %rdx
	.loc	1 422 19                        # D:\Code\University\algoritms\lab9\lab9.cpp:422:19
	callq	_ZNSolsEx
	movq	%rax, %rcx
	.loc	1 422 81                        # D:\Code\University\algoritms\lab9\lab9.cpp:422:81
	leaq	.L.str.19(%rip), %rdx
	callq	_ZStlsISt11char_traitsIcEERSt13basic_ostreamIcT_ES5_PKc
	movq	%rax, 128(%rsp)                 # 8-byte Spill
	.loc	1 422 93                        # D:\Code\University\algoritms\lab9\lab9.cpp:422:93
	movl	$12, %ecx
	callq	_ZSt4setwi
	movq	128(%rsp), %rcx                 # 8-byte Reload
	movl	%eax, 584(%rsp)
	.loc	1 422 90                        # D:\Code\University\algoritms\lab9\lab9.cpp:422:90
	movl	584(%rsp), %edx
	callq	_ZStlsIcSt11char_traitsIcEERSt13basic_ostreamIT_T0_ES6_St5_Setw
	movq	%rax, 136(%rsp)                 # 8-byte Spill
	.loc	1 423 75 is_stmt 1              # D:\Code\University\algoritms\lab9\lab9.cpp:423:75
	movl	612(%rsp), %r8d
	.loc	1 423 22 is_stmt 0              # D:\Code\University\algoritms\lab9\lab9.cpp:423:22
	leaq	_Z9ShellSortRPii(%rip), %rcx
	leaq	_Z19FillArrayMiddleCaseRPii(%rip), %rdx
	callq	_Z20autoSortTestForArrayPFPiRS_iEPFvS0_iEi
	movq	136(%rsp), %rcx                 # 8-byte Reload
	movq	%rax, %rdx
	.loc	1 423 19                        # D:\Code\University\algoritms\lab9\lab9.cpp:423:19
	callq	_ZNSolsEx
	movq	%rax, %rcx
	.loc	1 423 81                        # D:\Code\University\algoritms\lab9\lab9.cpp:423:81
	leaq	.L.str.19(%rip), %rdx
	callq	_ZStlsISt11char_traitsIcEERSt13basic_ostreamIcT_ES5_PKc
	movq	%rax, 144(%rsp)                 # 8-byte Spill
	.loc	1 423 93                        # D:\Code\University\algoritms\lab9\lab9.cpp:423:93
	movl	$12, %ecx
	callq	_ZSt4setwi
	movq	144(%rsp), %rcx                 # 8-byte Reload
	movl	%eax, 580(%rsp)
	.loc	1 423 90                        # D:\Code\University\algoritms\lab9\lab9.cpp:423:90
	movl	580(%rsp), %edx
	callq	_ZStlsIcSt11char_traitsIcEERSt13basic_ostreamIT_T0_ES6_St5_Setw
	movq	%rax, 152(%rsp)                 # 8-byte Spill
	.loc	1 424 77 is_stmt 1              # D:\Code\University\algoritms\lab9\lab9.cpp:424:77
	movl	612(%rsp), %r8d
	.loc	1 424 22 is_stmt 0              # D:\Code\University\algoritms\lab9\lab9.cpp:424:22
	leaq	_Z11PyramidSortRPii(%rip), %rcx
	leaq	_Z19FillArrayMiddleCaseRPii(%rip), %rdx
	callq	_Z20autoSortTestForArrayPFPiRS_iEPFvS0_iEi
	movq	152(%rsp), %rcx                 # 8-byte Reload
	movq	%rax, %rdx
	.loc	1 424 19                        # D:\Code\University\algoritms\lab9\lab9.cpp:424:19
	callq	_ZNSolsEx
	movq	%rax, %rcx
	.loc	1 424 83                        # D:\Code\University\algoritms\lab9\lab9.cpp:424:83
	leaq	.L.str.19(%rip), %rdx
	callq	_ZStlsISt11char_traitsIcEERSt13basic_ostreamIcT_ES5_PKc
	movq	%rax, 160(%rsp)                 # 8-byte Spill
	.loc	1 424 95                        # D:\Code\University\algoritms\lab9\lab9.cpp:424:95
	movl	$12, %ecx
	callq	_ZSt4setwi
	movq	160(%rsp), %rcx                 # 8-byte Reload
	movl	%eax, 576(%rsp)
	.loc	1 424 92                        # D:\Code\University\algoritms\lab9\lab9.cpp:424:92
	movl	576(%rsp), %edx
	callq	_ZStlsIcSt11char_traitsIcEERSt13basic_ostreamIT_T0_ES6_St5_Setw
	movq	%rax, 168(%rsp)                 # 8-byte Spill
	.loc	1 425 76 is_stmt 1              # D:\Code\University\algoritms\lab9\lab9.cpp:425:76
	movl	612(%rsp), %r8d
	.loc	1 425 22 is_stmt 0              # D:\Code\University\algoritms\lab9\lab9.cpp:425:22
	leaq	_Z10ShakerSortRPii(%rip), %rcx
	leaq	_Z19FillArrayMiddleCaseRPii(%rip), %rdx
	callq	_Z20autoSortTestForArrayPFPiRS_iEPFvS0_iEi
	movq	168(%rsp), %rcx                 # 8-byte Reload
	movq	%rax, %rdx
	.loc	1 425 19                        # D:\Code\University\algoritms\lab9\lab9.cpp:425:19
	callq	_ZNSolsEx
	movq	%rax, %rcx
	.loc	1 425 82                        # D:\Code\University\algoritms\lab9\lab9.cpp:425:82
	leaq	.L.str.19(%rip), %rdx
	callq	_ZStlsISt11char_traitsIcEERSt13basic_ostreamIcT_ES5_PKc
	movq	%rax, 176(%rsp)                 # 8-byte Spill
	.loc	1 425 94                        # D:\Code\University\algoritms\lab9\lab9.cpp:425:94
	movl	$12, %ecx
	callq	_ZSt4setwi
	movq	176(%rsp), %rcx                 # 8-byte Reload
	movl	%eax, 572(%rsp)
	.loc	1 425 91                        # D:\Code\University\algoritms\lab9\lab9.cpp:425:91
	movl	572(%rsp), %edx
	callq	_ZStlsIcSt11char_traitsIcEERSt13basic_ostreamIT_T0_ES6_St5_Setw
	movq	%rax, 184(%rsp)                 # 8-byte Spill
	.loc	1 426 72 is_stmt 1              # D:\Code\University\algoritms\lab9\lab9.cpp:426:72
	movl	612(%rsp), %r8d
	.loc	1 426 22 is_stmt 0              # D:\Code\University\algoritms\lab9\lab9.cpp:426:22
	leaq	_Z9QuickSortRPii(%rip), %rcx
	leaq	_Z16FillArrayBadCaseRPii(%rip), %rdx
	callq	_Z20autoSortTestForArrayPFPiRS_iEPFvS0_iEi
	movq	184(%rsp), %rcx                 # 8-byte Reload
	movq	%rax, %rdx
	.loc	1 426 19                        # D:\Code\University\algoritms\lab9\lab9.cpp:426:19
	callq	_ZNSolsEx
	movq	%rax, %rcx
	.loc	1 426 78                        # D:\Code\University\algoritms\lab9\lab9.cpp:426:78
	leaq	.L.str.19(%rip), %rdx
	callq	_ZStlsISt11char_traitsIcEERSt13basic_ostreamIcT_ES5_PKc
	movq	%rax, 192(%rsp)                 # 8-byte Spill
	.loc	1 426 90                        # D:\Code\University\algoritms\lab9\lab9.cpp:426:90
	movl	$12, %ecx
	callq	_ZSt4setwi
	movq	192(%rsp), %rcx                 # 8-byte Reload
	movl	%eax, 568(%rsp)
	.loc	1 426 87                        # D:\Code\University\algoritms\lab9\lab9.cpp:426:87
	movl	568(%rsp), %edx
	callq	_ZStlsIcSt11char_traitsIcEERSt13basic_ostreamIT_T0_ES6_St5_Setw
	movq	%rax, 200(%rsp)                 # 8-byte Spill
	.loc	1 427 72 is_stmt 1              # D:\Code\University\algoritms\lab9\lab9.cpp:427:72
	movl	612(%rsp), %r8d
	.loc	1 427 22 is_stmt 0              # D:\Code\University\algoritms\lab9\lab9.cpp:427:22
	leaq	_Z9ShellSortRPii(%rip), %rcx
	leaq	_Z16FillArrayBadCaseRPii(%rip), %rdx
	callq	_Z20autoSortTestForArrayPFPiRS_iEPFvS0_iEi
	movq	200(%rsp), %rcx                 # 8-byte Reload
	movq	%rax, %rdx
	.loc	1 427 19                        # D:\Code\University\algoritms\lab9\lab9.cpp:427:19
	callq	_ZNSolsEx
	movq	%rax, %rcx
	.loc	1 427 78                        # D:\Code\University\algoritms\lab9\lab9.cpp:427:78
	leaq	.L.str.19(%rip), %rdx
	callq	_ZStlsISt11char_traitsIcEERSt13basic_ostreamIcT_ES5_PKc
	movq	%rax, 208(%rsp)                 # 8-byte Spill
	.loc	1 427 90                        # D:\Code\University\algoritms\lab9\lab9.cpp:427:90
	movl	$12, %ecx
	callq	_ZSt4setwi
	movq	208(%rsp), %rcx                 # 8-byte Reload
	movl	%eax, 564(%rsp)
	.loc	1 427 87                        # D:\Code\University\algoritms\lab9\lab9.cpp:427:87
	movl	564(%rsp), %edx
	callq	_ZStlsIcSt11char_traitsIcEERSt13basic_ostreamIT_T0_ES6_St5_Setw
	movq	%rax, 216(%rsp)                 # 8-byte Spill
	.loc	1 428 74 is_stmt 1              # D:\Code\University\algoritms\lab9\lab9.cpp:428:74
	movl	612(%rsp), %r8d
	.loc	1 428 22 is_stmt 0              # D:\Code\University\algoritms\lab9\lab9.cpp:428:22
	leaq	_Z11PyramidSortRPii(%rip), %rcx
	leaq	_Z16FillArrayBadCaseRPii(%rip), %rdx
	callq	_Z20autoSortTestForArrayPFPiRS_iEPFvS0_iEi
	movq	216(%rsp), %rcx                 # 8-byte Reload
	movq	%rax, %rdx
	.loc	1 428 19                        # D:\Code\University\algoritms\lab9\lab9.cpp:428:19
	callq	_ZNSolsEx
	movq	%rax, %rcx
	.loc	1 428 80                        # D:\Code\University\algoritms\lab9\lab9.cpp:428:80
	leaq	.L.str.19(%rip), %rdx
	callq	_ZStlsISt11char_traitsIcEERSt13basic_ostreamIcT_ES5_PKc
	movq	%rax, 224(%rsp)                 # 8-byte Spill
	.loc	1 428 92                        # D:\Code\University\algoritms\lab9\lab9.cpp:428:92
	movl	$12, %ecx
	callq	_ZSt4setwi
	movq	224(%rsp), %rcx                 # 8-byte Reload
	movl	%eax, 560(%rsp)
	.loc	1 428 89                        # D:\Code\University\algoritms\lab9\lab9.cpp:428:89
	movl	560(%rsp), %edx
	callq	_ZStlsIcSt11char_traitsIcEERSt13basic_ostreamIT_T0_ES6_St5_Setw
	movq	%rax, 232(%rsp)                 # 8-byte Spill
	.loc	1 429 73 is_stmt 1              # D:\Code\University\algoritms\lab9\lab9.cpp:429:73
	movl	612(%rsp), %r8d
	.loc	1 429 22 is_stmt 0              # D:\Code\University\algoritms\lab9\lab9.cpp:429:22
	leaq	_Z10ShakerSortRPii(%rip), %rcx
	leaq	_Z16FillArrayBadCaseRPii(%rip), %rdx
	callq	_Z20autoSortTestForArrayPFPiRS_iEPFvS0_iEi
	movq	232(%rsp), %rcx                 # 8-byte Reload
	movq	%rax, %rdx
	.loc	1 429 19                        # D:\Code\University\algoritms\lab9\lab9.cpp:429:19
	callq	_ZNSolsEx
	movq	%rax, %rcx
	.loc	1 429 79                        # D:\Code\University\algoritms\lab9\lab9.cpp:429:79
	leaq	.L.str.19(%rip), %rdx
	callq	_ZStlsISt11char_traitsIcEERSt13basic_ostreamIcT_ES5_PKc
	movq	%rax, %rcx
	.loc	1 429 88                        # D:\Code\University\algoritms\lab9\lab9.cpp:429:88
	leaq	_ZSt4endlIcSt11char_traitsIcEERSt13basic_ostreamIT_T0_ES6_(%rip), %rdx
	callq	_ZNSolsEPFRSoS_E
.Ltmp123:
# %bb.9:                                #   in Loop: Header=BB10_7 Depth=1
	.loc	1 414 43 is_stmt 1              # D:\Code\University\algoritms\lab9\lab9.cpp:414:43
	movl	TEST_STEP_SIZE(%rip), %eax
	.loc	1 414 40 is_stmt 0              # D:\Code\University\algoritms\lab9\lab9.cpp:414:40
	addl	616(%rsp), %eax
	movl	%eax, 616(%rsp)
	.loc	1 414 5                         # D:\Code\University\algoritms\lab9\lab9.cpp:414:5
	jmp	.LBB10_7
.Ltmp124:
.LBB10_10:
.Ltmp93:
	.loc	1 0 5                           # D:\Code\University\algoritms\lab9\lab9.cpp:0:5
	movq	%rax, %rcx
	.loc	1 432 1 is_stmt 1               # D:\Code\University\algoritms\lab9\lab9.cpp:432:1
	movl	%edx, %eax
	movq	%rcx, 752(%rsp)
	movl	%eax, 748(%rsp)
	jmp	.LBB10_12
.LBB10_11:
.Ltmp98:
	.loc	1 0 1 is_stmt 0                 # D:\Code\University\algoritms\lab9\lab9.cpp:0:1
	movq	%rax, %rcx
	.loc	1 432 1                         # D:\Code\University\algoritms\lab9\lab9.cpp:432:1
	movl	%edx, %eax
	movq	%rcx, 752(%rsp)
	movl	%eax, 748(%rsp)
	.loc	1 396 5 is_stmt 1               # D:\Code\University\algoritms\lab9\lab9.cpp:396:5
	leaq	768(%rsp), %rcx
	callq	_ZNSt7__cxx1112basic_stringIcSt11char_traitsIcESaIcEED1Ev
.LBB10_12:
	.loc	1 0 5 is_stmt 0                 # D:\Code\University\algoritms\lab9\lab9.cpp:0:5
	leaq	767(%rsp), %rax
	movq	%rax, 840(%rsp)
	movq	840(%rsp), %rcx
.Ltmp125:
	.loc	9 182 39 is_stmt 1              # C:/mingw64/include/c++/14.2.0/bits/allocator.h:182:39
	callq	_ZNSt15__new_allocatorIcED2Ev
.Ltmp126:
	.loc	1 396 5                         # D:\Code\University\algoritms\lab9\lab9.cpp:396:5
	jmp	.LBB10_23
.LBB10_13:
.Ltmp101:
	.loc	1 0 5 is_stmt 0                 # D:\Code\University\algoritms\lab9\lab9.cpp:0:5
	movq	%rax, %rcx
	.loc	1 432 1 is_stmt 1               # D:\Code\University\algoritms\lab9\lab9.cpp:432:1
	movl	%edx, %eax
	movq	%rcx, 752(%rsp)
	movl	%eax, 748(%rsp)
	jmp	.LBB10_15
.LBB10_14:
.Ltmp106:
	.loc	1 0 1 is_stmt 0                 # D:\Code\University\algoritms\lab9\lab9.cpp:0:1
	movq	%rax, %rcx
	.loc	1 432 1                         # D:\Code\University\algoritms\lab9\lab9.cpp:432:1
	movl	%edx, %eax
	movq	%rcx, 752(%rsp)
	movl	%eax, 748(%rsp)
	.loc	1 413 5 is_stmt 1               # D:\Code\University\algoritms\lab9\lab9.cpp:413:5
	leaq	624(%rsp), %rcx
	callq	_ZNSt7__cxx1112basic_stringIcSt11char_traitsIcESaIcEED1Ev
.LBB10_15:
	.loc	1 0 5 is_stmt 0                 # D:\Code\University\algoritms\lab9\lab9.cpp:0:5
	leaq	623(%rsp), %rax
	movq	%rax, 856(%rsp)
	movq	856(%rsp), %rcx
.Ltmp127:
	.loc	9 182 39 is_stmt 1              # C:/mingw64/include/c++/14.2.0/bits/allocator.h:182:39
	callq	_ZNSt15__new_allocatorIcED2Ev
.Ltmp128:
	.loc	1 413 5                         # D:\Code\University\algoritms\lab9\lab9.cpp:413:5
	jmp	.LBB10_23
.LBB10_16:
	.loc	1 0 5 is_stmt 0                 # D:\Code\University\algoritms\lab9\lab9.cpp:0:5
	leaq	527(%rsp), %r9
	movq	%r9, 824(%rsp)
	movq	824(%rsp), %rax
	movq	%rax, 880(%rsp)
.Ltmp107:
	leaq	528(%rsp), %rcx
	movl	$188, %edx
	movb	$45, %r8b
	.loc	1 431 18 is_stmt 1              # D:\Code\University\algoritms\lab9\lab9.cpp:431:18
	callq	_ZNSt7__cxx1112basic_stringIcSt11char_traitsIcESaIcEEC2IS3_EEycRKS3_
.Ltmp108:
	jmp	.LBB10_17
.LBB10_17:
.Ltmp110:
	.loc	1 431 15 is_stmt 0              # D:\Code\University\algoritms\lab9\lab9.cpp:431:15
	movq	.refptr._ZSt4cout(%rip), %rcx
	leaq	528(%rsp), %rdx
	callq	_ZStlsIcSt11char_traitsIcESaIcEERSt13basic_ostreamIT_T0_ES7_RKNSt7__cxx1112basic_stringIS4_S5_T1_EE
.Ltmp111:
	movq	%rax, 40(%rsp)                  # 8-byte Spill
	jmp	.LBB10_18
.LBB10_18:
.Ltmp112:
	.loc	1 0 15                          # D:\Code\University\algoritms\lab9\lab9.cpp:0:15
	movq	40(%rsp), %rcx                  # 8-byte Reload
	.loc	1 431 51                        # D:\Code\University\algoritms\lab9\lab9.cpp:431:51
	leaq	_ZSt4endlIcSt11char_traitsIcEERSt13basic_ostreamIT_T0_ES6_(%rip), %rdx
	callq	_ZNSolsEPFRSoS_E
.Ltmp113:
	jmp	.LBB10_19
.LBB10_19:
	.loc	1 431 5                         # D:\Code\University\algoritms\lab9\lab9.cpp:431:5
	leaq	528(%rsp), %rcx
	callq	_ZNSt7__cxx1112basic_stringIcSt11char_traitsIcESaIcEED1Ev
	leaq	527(%rsp), %rax
	movq	%rax, 864(%rsp)
	movq	864(%rsp), %rcx
.Ltmp129:
	.loc	9 182 39 is_stmt 1              # C:/mingw64/include/c++/14.2.0/bits/allocator.h:182:39
	callq	_ZNSt15__new_allocatorIcED2Ev
.Ltmp130:
	.loc	1 432 1                         # D:\Code\University\algoritms\lab9\lab9.cpp:432:1
	nop
	.loc	1 432 1 epilogue_begin is_stmt 0 # D:\Code\University\algoritms\lab9\lab9.cpp:432:1
	addq	$904, %rsp                      # imm = 0x388
	retq
.LBB10_20:
.Ltmp109:
	.loc	1 0 1                           # D:\Code\University\algoritms\lab9\lab9.cpp:0:1
	movq	%rax, %rcx
	.loc	1 432 1                         # D:\Code\University\algoritms\lab9\lab9.cpp:432:1
	movl	%edx, %eax
	movq	%rcx, 752(%rsp)
	movl	%eax, 748(%rsp)
	jmp	.LBB10_22
.LBB10_21:
.Ltmp114:
	.loc	1 0 1                           # D:\Code\University\algoritms\lab9\lab9.cpp:0:1
	movq	%rax, %rcx
	.loc	1 432 1                         # D:\Code\University\algoritms\lab9\lab9.cpp:432:1
	movl	%edx, %eax
	movq	%rcx, 752(%rsp)
	movl	%eax, 748(%rsp)
	.loc	1 431 5 is_stmt 1               # D:\Code\University\algoritms\lab9\lab9.cpp:431:5
	leaq	528(%rsp), %rcx
	callq	_ZNSt7__cxx1112basic_stringIcSt11char_traitsIcESaIcEED1Ev
.LBB10_22:
	.loc	1 0 5 is_stmt 0                 # D:\Code\University\algoritms\lab9\lab9.cpp:0:5
	leaq	527(%rsp), %rax
	movq	%rax, 872(%rsp)
	movq	872(%rsp), %rcx
.Ltmp131:
	.loc	9 182 39 is_stmt 1              # C:/mingw64/include/c++/14.2.0/bits/allocator.h:182:39
	callq	_ZNSt15__new_allocatorIcED2Ev
.Ltmp132:
.LBB10_23:
	.loc	1 396 5                         # D:\Code\University\algoritms\lab9\lab9.cpp:396:5
	movq	752(%rsp), %rcx
	callq	_Unwind_Resume
	int3
.Ltmp133:
.Lfunc_end10:
	.seh_handlerdata
	.text
	.seh_endproc
	.section	.xdata,"dr"
	.p2align	2, 0x0
GCC_except_table10:
.Lexception0:
	.byte	255                             # @LPStart Encoding = omit
	.byte	255                             # @TType Encoding = omit
	.byte	1                               # Call site Encoding = uleb128
	.uleb128 .Lcst_end0-.Lcst_begin0
.Lcst_begin0:
	.uleb128 .Lfunc_begin10-.Lfunc_begin10  # >> Call Site 1 <<
	.uleb128 .Ltmp91-.Lfunc_begin10         #   Call between .Lfunc_begin10 and .Ltmp91
	.byte	0                               #     has no landing pad
	.byte	0                               #   On action: cleanup
	.uleb128 .Ltmp91-.Lfunc_begin10         # >> Call Site 2 <<
	.uleb128 .Ltmp92-.Ltmp91                #   Call between .Ltmp91 and .Ltmp92
	.uleb128 .Ltmp93-.Lfunc_begin10         #     jumps to .Ltmp93
	.byte	0                               #   On action: cleanup
	.uleb128 .Ltmp94-.Lfunc_begin10         # >> Call Site 3 <<
	.uleb128 .Ltmp97-.Ltmp94                #   Call between .Ltmp94 and .Ltmp97
	.uleb128 .Ltmp98-.Lfunc_begin10         #     jumps to .Ltmp98
	.byte	0                               #   On action: cleanup
	.uleb128 .Ltmp97-.Lfunc_begin10         # >> Call Site 4 <<
	.uleb128 .Ltmp99-.Ltmp97                #   Call between .Ltmp97 and .Ltmp99
	.byte	0                               #     has no landing pad
	.byte	0                               #   On action: cleanup
	.uleb128 .Ltmp99-.Lfunc_begin10         # >> Call Site 5 <<
	.uleb128 .Ltmp100-.Ltmp99               #   Call between .Ltmp99 and .Ltmp100
	.uleb128 .Ltmp101-.Lfunc_begin10        #     jumps to .Ltmp101
	.byte	0                               #   On action: cleanup
	.uleb128 .Ltmp102-.Lfunc_begin10        # >> Call Site 6 <<
	.uleb128 .Ltmp105-.Ltmp102              #   Call between .Ltmp102 and .Ltmp105
	.uleb128 .Ltmp106-.Lfunc_begin10        #     jumps to .Ltmp106
	.byte	0                               #   On action: cleanup
	.uleb128 .Ltmp105-.Lfunc_begin10        # >> Call Site 7 <<
	.uleb128 .Ltmp107-.Ltmp105              #   Call between .Ltmp105 and .Ltmp107
	.byte	0                               #     has no landing pad
	.byte	0                               #   On action: cleanup
	.uleb128 .Ltmp107-.Lfunc_begin10        # >> Call Site 8 <<
	.uleb128 .Ltmp108-.Ltmp107              #   Call between .Ltmp107 and .Ltmp108
	.uleb128 .Ltmp109-.Lfunc_begin10        #     jumps to .Ltmp109
	.byte	0                               #   On action: cleanup
	.uleb128 .Ltmp110-.Lfunc_begin10        # >> Call Site 9 <<
	.uleb128 .Ltmp113-.Ltmp110              #   Call between .Ltmp110 and .Ltmp113
	.uleb128 .Ltmp114-.Lfunc_begin10        #     jumps to .Ltmp114
	.byte	0                               #   On action: cleanup
	.uleb128 .Ltmp113-.Lfunc_begin10        # >> Call Site 10 <<
	.uleb128 .Lfunc_end10-.Ltmp113          #   Call between .Ltmp113 and .Lfunc_end10
	.byte	0                               #     has no landing pad
	.byte	0                               #   On action: cleanup
.Lcst_end0:
	.p2align	2, 0x0
	.text
                                        # -- End function
	.def	_ZNSt6chrono13duration_castINS_8durationIxSt5ratioILx1ELx1000000EEEExS2_ILx1ELx1000000000EEEENSt9enable_ifIXsr13__is_durationIT_EE5valueES7_E4typeERKNS1_IT0_T1_EE;
	.scl	2;
	.type	32;
	.endef
	.section	.text$_ZNSt6chrono13duration_castINS_8durationIxSt5ratioILx1ELx1000000EEEExS2_ILx1ELx1000000000EEEENSt9enable_ifIXsr13__is_durationIT_EE5valueES7_E4typeERKNS1_IT0_T1_EE,"xr",discard,_ZNSt6chrono13duration_castINS_8durationIxSt5ratioILx1ELx1000000EEEExS2_ILx1ELx1000000000EEEENSt9enable_ifIXsr13__is_durationIT_EE5valueES7_E4typeERKNS1_IT0_T1_EE
	.globl	_ZNSt6chrono13duration_castINS_8durationIxSt5ratioILx1ELx1000000EEEExS2_ILx1ELx1000000000EEEENSt9enable_ifIXsr13__is_durationIT_EE5valueES7_E4typeERKNS1_IT0_T1_EE # -- Begin function _ZNSt6chrono13duration_castINS_8durationIxSt5ratioILx1ELx1000000EEEExS2_ILx1ELx1000000000EEEENSt9enable_ifIXsr13__is_durationIT_EE5valueES7_E4typeERKNS1_IT0_T1_EE
	.p2align	4, 0x90
_ZNSt6chrono13duration_castINS_8durationIxSt5ratioILx1ELx1000000EEEExS2_ILx1ELx1000000000EEEENSt9enable_ifIXsr13__is_durationIT_EE5valueES7_E4typeERKNS1_IT0_T1_EE: # @_ZNSt6chrono13duration_castINS_8durationIxSt5ratioILx1ELx1000000EEEExS2_ILx1ELx1000000000EEEENSt9enable_ifIXsr13__is_durationIT_EE5valueES7_E4typeERKNS1_IT0_T1_EE
.Lfunc_begin11:
	.loc	4 276 0                         # C:/mingw64/include/c++/14.2.0/bits/chrono.h:276:0
.seh_proc _ZNSt6chrono13duration_castINS_8durationIxSt5ratioILx1ELx1000000EEEExS2_ILx1ELx1000000000EEEENSt9enable_ifIXsr13__is_durationIT_EE5valueES7_E4typeERKNS1_IT0_T1_EE
# %bb.0:
	subq	$56, %rsp
	.seh_stackalloc 56
	.seh_endprologue
	movq	%rcx, 40(%rsp)
.Ltmp134:
	.loc	4 289 24 prologue_end           # C:/mingw64/include/c++/14.2.0/bits/chrono.h:289:24
	movq	40(%rsp), %rcx
	.loc	4 289 11 is_stmt 0              # C:/mingw64/include/c++/14.2.0/bits/chrono.h:289:11
	callq	_ZNSt6chrono20__duration_cast_implINS_8durationIxSt5ratioILx1ELx1000000EEEES2_ILx1ELx1000EExLb1ELb0EE6__castIxS2_ILx1ELx1000000000EEEES4_RKNS1_IT_T0_EE
	movq	%rax, 48(%rsp)
	.loc	4 289 4                         # C:/mingw64/include/c++/14.2.0/bits/chrono.h:289:4
	movq	48(%rsp), %rax
	.loc	4 289 4 epilogue_begin          # C:/mingw64/include/c++/14.2.0/bits/chrono.h:289:4
	addq	$56, %rsp
	retq
.Ltmp135:
.Lfunc_end11:
	.seh_endproc
                                        # -- End function
	.def	_ZNSt6chronomiINS_3_V212system_clockENS_8durationIxSt5ratioILx1ELx1000000000EEEES6_EENSt11common_typeIJT0_T1_EE4typeERKNS_10time_pointIT_S8_EERKNSC_ISD_S9_EE;
	.scl	2;
	.type	32;
	.endef
	.section	.text$_ZNSt6chronomiINS_3_V212system_clockENS_8durationIxSt5ratioILx1ELx1000000000EEEES6_EENSt11common_typeIJT0_T1_EE4typeERKNS_10time_pointIT_S8_EERKNSC_ISD_S9_EE,"xr",discard,_ZNSt6chronomiINS_3_V212system_clockENS_8durationIxSt5ratioILx1ELx1000000000EEEES6_EENSt11common_typeIJT0_T1_EE4typeERKNS_10time_pointIT_S8_EERKNSC_ISD_S9_EE
	.globl	_ZNSt6chronomiINS_3_V212system_clockENS_8durationIxSt5ratioILx1ELx1000000000EEEES6_EENSt11common_typeIJT0_T1_EE4typeERKNS_10time_pointIT_S8_EERKNSC_ISD_S9_EE # -- Begin function _ZNSt6chronomiINS_3_V212system_clockENS_8durationIxSt5ratioILx1ELx1000000000EEEES6_EENSt11common_typeIJT0_T1_EE4typeERKNS_10time_pointIT_S8_EERKNSC_ISD_S9_EE
	.p2align	4, 0x90
_ZNSt6chronomiINS_3_V212system_clockENS_8durationIxSt5ratioILx1ELx1000000000EEEES6_EENSt11common_typeIJT0_T1_EE4typeERKNS_10time_pointIT_S8_EERKNSC_ISD_S9_EE: # @_ZNSt6chronomiINS_3_V212system_clockENS_8durationIxSt5ratioILx1ELx1000000000EEEES6_EENSt11common_typeIJT0_T1_EE4typeERKNS_10time_pointIT_S8_EERKNSC_ISD_S9_EE
.Lfunc_begin12:
	.loc	4 1143 0 is_stmt 1              # C:/mingw64/include/c++/14.2.0/bits/chrono.h:1143:0
.seh_proc _ZNSt6chronomiINS_3_V212system_clockENS_8durationIxSt5ratioILx1ELx1000000000EEEES6_EENSt11common_typeIJT0_T1_EE4typeERKNS_10time_pointIT_S8_EERKNSC_ISD_S9_EE
# %bb.0:
	subq	$72, %rsp
	.seh_stackalloc 72
	.seh_endprologue
	movq	%rcx, 56(%rsp)
	movq	%rdx, 48(%rsp)
.Ltmp136:
	.loc	4 1143 16 prologue_end          # C:/mingw64/include/c++/14.2.0/bits/chrono.h:1143:16
	movq	56(%rsp), %rcx
	.loc	4 1143 22 is_stmt 0             # C:/mingw64/include/c++/14.2.0/bits/chrono.h:1143:22
	callq	_ZNKSt6chrono10time_pointINS_3_V212system_clockENS_8durationIxSt5ratioILx1ELx1000000000EEEEE16time_since_epochEv
	movq	%rax, 40(%rsp)
	.loc	4 1143 43                       # C:/mingw64/include/c++/14.2.0/bits/chrono.h:1143:43
	movq	48(%rsp), %rcx
	.loc	4 1143 49                       # C:/mingw64/include/c++/14.2.0/bits/chrono.h:1143:49
	callq	_ZNKSt6chrono10time_pointINS_3_V212system_clockENS_8durationIxSt5ratioILx1ELx1000000000EEEEE16time_since_epochEv
	movq	%rax, 32(%rsp)
	.loc	4 1143 41                       # C:/mingw64/include/c++/14.2.0/bits/chrono.h:1143:41
	leaq	40(%rsp), %rcx
	leaq	32(%rsp), %rdx
	callq	_ZNSt6chronomiIxSt5ratioILx1ELx1000000000EExS2_EENSt11common_typeIJNS_8durationIT_T0_EENS4_IT1_T2_EEEE4typeERKS7_RKSA_
	movq	%rax, 64(%rsp)
	.loc	4 1143 9                        # C:/mingw64/include/c++/14.2.0/bits/chrono.h:1143:9
	movq	64(%rsp), %rax
	.loc	4 1143 9 epilogue_begin         # C:/mingw64/include/c++/14.2.0/bits/chrono.h:1143:9
	addq	$72, %rsp
	retq
.Ltmp137:
.Lfunc_end12:
	.seh_endproc
                                        # -- End function
	.def	_ZNKSt6chrono8durationIxSt5ratioILx1ELx1000000EEE5countEv;
	.scl	2;
	.type	32;
	.endef
	.section	.text$_ZNKSt6chrono8durationIxSt5ratioILx1ELx1000000EEE5countEv,"xr",discard,_ZNKSt6chrono8durationIxSt5ratioILx1ELx1000000EEE5countEv
	.globl	_ZNKSt6chrono8durationIxSt5ratioILx1ELx1000000EEE5countEv # -- Begin function _ZNKSt6chrono8durationIxSt5ratioILx1ELx1000000EEE5countEv
	.p2align	4, 0x90
_ZNKSt6chrono8durationIxSt5ratioILx1ELx1000000EEE5countEv: # @_ZNKSt6chrono8durationIxSt5ratioILx1ELx1000000EEE5countEv
.Lfunc_begin13:
	.loc	4 590 0 is_stmt 1               # C:/mingw64/include/c++/14.2.0/bits/chrono.h:590:0
.seh_proc _ZNKSt6chrono8durationIxSt5ratioILx1ELx1000000EEE5countEv
# %bb.0:
	pushq	%rax
	.seh_stackalloc 8
	.seh_endprologue
	movq	%rcx, (%rsp)
	movq	(%rsp), %rax
.Ltmp138:
	.loc	4 590 11 prologue_end           # C:/mingw64/include/c++/14.2.0/bits/chrono.h:590:11
	movq	(%rax), %rax
	.loc	4 590 4 is_stmt 0               # C:/mingw64/include/c++/14.2.0/bits/chrono.h:590:4
	.loc	4 590 4 epilogue_begin          # C:/mingw64/include/c++/14.2.0/bits/chrono.h:590:4
	popq	%rcx
	retq
.Ltmp139:
.Lfunc_end13:
	.seh_endproc
                                        # -- End function
	.def	_Z13PartQuickSortRPiiii;
	.scl	2;
	.type	32;
	.endef
	.text
	.globl	_Z13PartQuickSortRPiiii         # -- Begin function _Z13PartQuickSortRPiiii
	.p2align	4, 0x90
_Z13PartQuickSortRPiiii:                # @_Z13PartQuickSortRPiiii
.Lfunc_begin14:
	.loc	1 202 0 is_stmt 1               # D:\Code\University\algoritms\lab9\lab9.cpp:202:0
.seh_proc _Z13PartQuickSortRPiiii
# %bb.0:
	subq	$72, %rsp
	.seh_stackalloc 72
	.seh_endprologue
	movq	%rcx, 56(%rsp)
	movl	%edx, 52(%rsp)
	movl	%r8d, 48(%rsp)
	movl	%r9d, 44(%rsp)
.Ltmp140:
	.loc	1 204 9 prologue_end            # D:\Code\University\algoritms\lab9\lab9.cpp:204:9
	movl	48(%rsp), %eax
	.loc	1 204 16 is_stmt 0              # D:\Code\University\algoritms\lab9\lab9.cpp:204:16
	cmpl	44(%rsp), %eax
.Ltmp141:
	.loc	1 204 9                         # D:\Code\University\algoritms\lab9\lab9.cpp:204:9
	jl	.LBB14_2
# %bb.1:
.Ltmp142:
	.loc	1 206 16 is_stmt 1              # D:\Code\University\algoritms\lab9\lab9.cpp:206:16
	movq	56(%rsp), %rax
	movq	(%rax), %rax
	.loc	1 206 9 is_stmt 0               # D:\Code\University\algoritms\lab9\lab9.cpp:206:9
	movq	%rax, 64(%rsp)
	jmp	.LBB14_9
.Ltmp143:
.LBB14_2:
	.loc	1 209 30 is_stmt 1              # D:\Code\University\algoritms\lab9\lab9.cpp:209:30
	movq	56(%rsp), %rax
	movq	(%rax), %rax
	movslq	44(%rsp), %rcx
	movl	(%rax,%rcx,4), %eax
	.loc	1 209 9 is_stmt 0               # D:\Code\University\algoritms\lab9\lab9.cpp:209:9
	movl	%eax, 40(%rsp)
	.loc	1 210 37 is_stmt 1              # D:\Code\University\algoritms\lab9\lab9.cpp:210:37
	movl	48(%rsp), %eax
	.loc	1 210 9 is_stmt 0               # D:\Code\University\algoritms\lab9\lab9.cpp:210:9
	movl	%eax, 36(%rsp)
.Ltmp144:
	.loc	1 213 18 is_stmt 1              # D:\Code\University\algoritms\lab9\lab9.cpp:213:18
	movl	48(%rsp), %eax
	.loc	1 213 14 is_stmt 0              # D:\Code\University\algoritms\lab9\lab9.cpp:213:14
	movl	%eax, 32(%rsp)
.LBB14_3:                               # =>This Inner Loop Header: Depth=1
.Ltmp145:
	.loc	1 213 26                        # D:\Code\University\algoritms\lab9\lab9.cpp:213:26
	movl	32(%rsp), %eax
	.loc	1 213 28                        # D:\Code\University\algoritms\lab9\lab9.cpp:213:28
	cmpl	44(%rsp), %eax
.Ltmp146:
	.loc	1 213 5                         # D:\Code\University\algoritms\lab9\lab9.cpp:213:5
	jge	.LBB14_8
# %bb.4:                                #   in Loop: Header=BB14_3 Depth=1
.Ltmp147:
	.loc	1 215 13 is_stmt 1              # D:\Code\University\algoritms\lab9\lab9.cpp:215:13
	movq	56(%rsp), %rax
	movq	(%rax), %rax
	movslq	32(%rsp), %rcx
	movl	(%rax,%rcx,4), %eax
	.loc	1 215 23 is_stmt 0              # D:\Code\University\algoritms\lab9\lab9.cpp:215:23
	cmpl	40(%rsp), %eax
.Ltmp148:
	.loc	1 215 13                        # D:\Code\University\algoritms\lab9\lab9.cpp:215:13
	jg	.LBB14_6
# %bb.5:                                #   in Loop: Header=BB14_3 Depth=1
.Ltmp149:
	.loc	1 217 23 is_stmt 1              # D:\Code\University\algoritms\lab9\lab9.cpp:217:23
	movq	56(%rsp), %rax
	movq	(%rax), %rcx
	movslq	32(%rsp), %rax
	shlq	$2, %rax
	addq	%rax, %rcx
	.loc	1 217 34 is_stmt 0              # D:\Code\University\algoritms\lab9\lab9.cpp:217:34
	movq	56(%rsp), %rax
	movq	(%rax), %rdx
	movslq	36(%rsp), %rax
	shlq	$2, %rax
	addq	%rax, %rdx
	.loc	1 217 13                        # D:\Code\University\algoritms\lab9\lab9.cpp:217:13
	callq	_ZSt4swapIiENSt9enable_ifIXsr6__and_ISt6__not_ISt15__is_tuple_likeIT_EESt21is_move_constructibleIS3_ESt18is_move_assignableIS3_EEE5valueEvE4typeERS3_SC_
	.loc	1 218 38 is_stmt 1              # D:\Code\University\algoritms\lab9\lab9.cpp:218:38
	movl	36(%rsp), %eax
	addl	$1, %eax
	movl	%eax, 36(%rsp)
.Ltmp150:
.LBB14_6:                               #   in Loop: Header=BB14_3 Depth=1
	.loc	1 220 5                         # D:\Code\University\algoritms\lab9\lab9.cpp:220:5
	jmp	.LBB14_7
.Ltmp151:
.LBB14_7:                               #   in Loop: Header=BB14_3 Depth=1
	.loc	1 213 37                        # D:\Code\University\algoritms\lab9\lab9.cpp:213:37
	movl	32(%rsp), %eax
	addl	$1, %eax
	movl	%eax, 32(%rsp)
	.loc	1 213 5 is_stmt 0               # D:\Code\University\algoritms\lab9\lab9.cpp:213:5
	jmp	.LBB14_3
.Ltmp152:
.LBB14_8:
	.loc	1 221 15 is_stmt 1              # D:\Code\University\algoritms\lab9\lab9.cpp:221:15
	movq	56(%rsp), %rax
	movq	(%rax), %rcx
	movslq	36(%rsp), %rax
	shlq	$2, %rax
	addq	%rax, %rcx
	.loc	1 221 50 is_stmt 0              # D:\Code\University\algoritms\lab9\lab9.cpp:221:50
	movq	56(%rsp), %rax
	movq	(%rax), %rdx
	movslq	44(%rsp), %rax
	shlq	$2, %rax
	addq	%rax, %rdx
	.loc	1 221 5                         # D:\Code\University\algoritms\lab9\lab9.cpp:221:5
	callq	_ZSt4swapIiENSt9enable_ifIXsr6__and_ISt6__not_ISt15__is_tuple_likeIT_EESt21is_move_constructibleIS3_ESt18is_move_assignableIS3_EEE5valueEvE4typeERS3_SC_
	.loc	1 224 19 is_stmt 1              # D:\Code\University\algoritms\lab9\lab9.cpp:224:19
	movq	56(%rsp), %rcx
	.loc	1 224 27 is_stmt 0              # D:\Code\University\algoritms\lab9\lab9.cpp:224:27
	movl	52(%rsp), %edx
	.loc	1 224 34                        # D:\Code\University\algoritms\lab9\lab9.cpp:224:34
	movl	48(%rsp), %r8d
	.loc	1 224 42                        # D:\Code\University\algoritms\lab9\lab9.cpp:224:42
	movl	36(%rsp), %r9d
	.loc	1 224 68                        # D:\Code\University\algoritms\lab9\lab9.cpp:224:68
	subl	$1, %r9d
	.loc	1 224 5                         # D:\Code\University\algoritms\lab9\lab9.cpp:224:5
	callq	_Z13PartQuickSortRPiiii
	.loc	1 225 19 is_stmt 1              # D:\Code\University\algoritms\lab9\lab9.cpp:225:19
	movq	56(%rsp), %rcx
	.loc	1 225 27 is_stmt 0              # D:\Code\University\algoritms\lab9\lab9.cpp:225:27
	movl	52(%rsp), %edx
	.loc	1 225 34                        # D:\Code\University\algoritms\lab9\lab9.cpp:225:34
	movl	36(%rsp), %r8d
	.loc	1 225 60                        # D:\Code\University\algoritms\lab9\lab9.cpp:225:60
	addl	$1, %r8d
	.loc	1 225 65                        # D:\Code\University\algoritms\lab9\lab9.cpp:225:65
	movl	44(%rsp), %r9d
	.loc	1 225 5                         # D:\Code\University\algoritms\lab9\lab9.cpp:225:5
	callq	_Z13PartQuickSortRPiiii
	.loc	1 227 12 is_stmt 1              # D:\Code\University\algoritms\lab9\lab9.cpp:227:12
	movq	56(%rsp), %rax
	movq	(%rax), %rax
	.loc	1 227 5 is_stmt 0               # D:\Code\University\algoritms\lab9\lab9.cpp:227:5
	movq	%rax, 64(%rsp)
.LBB14_9:
	.loc	1 228 1 is_stmt 1               # D:\Code\University\algoritms\lab9\lab9.cpp:228:1
	movq	64(%rsp), %rax
	.loc	1 228 1 epilogue_begin is_stmt 0 # D:\Code\University\algoritms\lab9\lab9.cpp:228:1
	addq	$72, %rsp
	retq
.Ltmp153:
.Lfunc_end14:
	.seh_endproc
                                        # -- End function
	.def	_ZSt4swapIiENSt9enable_ifIXsr6__and_ISt6__not_ISt15__is_tuple_likeIT_EESt21is_move_constructibleIS3_ESt18is_move_assignableIS3_EEE5valueEvE4typeERS3_SC_;
	.scl	2;
	.type	32;
	.endef
	.section	.text$_ZSt4swapIiENSt9enable_ifIXsr6__and_ISt6__not_ISt15__is_tuple_likeIT_EESt21is_move_constructibleIS3_ESt18is_move_assignableIS3_EEE5valueEvE4typeERS3_SC_,"xr",discard,_ZSt4swapIiENSt9enable_ifIXsr6__and_ISt6__not_ISt15__is_tuple_likeIT_EESt21is_move_constructibleIS3_ESt18is_move_assignableIS3_EEE5valueEvE4typeERS3_SC_
	.globl	_ZSt4swapIiENSt9enable_ifIXsr6__and_ISt6__not_ISt15__is_tuple_likeIT_EESt21is_move_constructibleIS3_ESt18is_move_assignableIS3_EEE5valueEvE4typeERS3_SC_ # -- Begin function _ZSt4swapIiENSt9enable_ifIXsr6__and_ISt6__not_ISt15__is_tuple_likeIT_EESt21is_move_constructibleIS3_ESt18is_move_assignableIS3_EEE5valueEvE4typeERS3_SC_
	.p2align	4, 0x90
_ZSt4swapIiENSt9enable_ifIXsr6__and_ISt6__not_ISt15__is_tuple_likeIT_EESt21is_move_constructibleIS3_ESt18is_move_assignableIS3_EEE5valueEvE4typeERS3_SC_: # @_ZSt4swapIiENSt9enable_ifIXsr6__and_ISt6__not_ISt15__is_tuple_likeIT_EESt21is_move_constructibleIS3_ESt18is_move_assignableIS3_EEE5valueEvE4typeERS3_SC_
.Lfunc_begin15:
	.file	18 "C:/mingw64/include/c++/14.2.0/bits" "move.h"
	.loc	18 216 0 is_stmt 1              # C:/mingw64/include/c++/14.2.0/bits/move.h:216:0
.seh_proc _ZSt4swapIiENSt9enable_ifIXsr6__and_ISt6__not_ISt15__is_tuple_likeIT_EESt21is_move_constructibleIS3_ESt18is_move_assignableIS3_EEE5valueEvE4typeERS3_SC_
# %bb.0:
	subq	$24, %rsp
	.seh_stackalloc 24
	.seh_endprologue
	movq	%rcx, 16(%rsp)
	movq	%rdx, 8(%rsp)
.Ltmp154:
	.loc	18 221 19 prologue_end          # C:/mingw64/include/c++/14.2.0/bits/move.h:221:19
	movq	16(%rsp), %rax
	movl	(%rax), %eax
	.loc	18 221 11 is_stmt 0             # C:/mingw64/include/c++/14.2.0/bits/move.h:221:11
	movl	%eax, 4(%rsp)
	.loc	18 222 13 is_stmt 1             # C:/mingw64/include/c++/14.2.0/bits/move.h:222:13
	movq	8(%rsp), %rax
	movl	(%rax), %ecx
	.loc	18 222 7 is_stmt 0              # C:/mingw64/include/c++/14.2.0/bits/move.h:222:7
	movq	16(%rsp), %rax
	.loc	18 222 11                       # C:/mingw64/include/c++/14.2.0/bits/move.h:222:11
	movl	%ecx, (%rax)
	.loc	18 223 13 is_stmt 1             # C:/mingw64/include/c++/14.2.0/bits/move.h:223:13
	movl	4(%rsp), %ecx
	.loc	18 223 7 is_stmt 0              # C:/mingw64/include/c++/14.2.0/bits/move.h:223:7
	movq	8(%rsp), %rax
	.loc	18 223 11                       # C:/mingw64/include/c++/14.2.0/bits/move.h:223:11
	movl	%ecx, (%rax)
	.loc	18 224 5 is_stmt 1              # C:/mingw64/include/c++/14.2.0/bits/move.h:224:5
	.loc	18 224 5 epilogue_begin is_stmt 0 # C:/mingw64/include/c++/14.2.0/bits/move.h:224:5
	addq	$24, %rsp
	retq
.Ltmp155:
.Lfunc_end15:
	.seh_endproc
                                        # -- End function
	.def	_Z13InsertionSortRPiiii;
	.scl	2;
	.type	32;
	.endef
	.text
	.globl	_Z13InsertionSortRPiiii         # -- Begin function _Z13InsertionSortRPiiii
	.p2align	4, 0x90
_Z13InsertionSortRPiiii:                # @_Z13InsertionSortRPiiii
.Lfunc_begin16:
	.loc	1 237 0 is_stmt 1               # D:\Code\University\algoritms\lab9\lab9.cpp:237:0
.seh_proc _Z13InsertionSortRPiiii
# %bb.0:
	subq	$40, %rsp
	.seh_stackalloc 40
	.seh_endprologue
	movq	%rcx, 32(%rsp)
	movl	%edx, 28(%rsp)
	movl	%r8d, 24(%rsp)
	movl	%r9d, 20(%rsp)
.Ltmp156:
	.loc	1 238 18 prologue_end           # D:\Code\University\algoritms\lab9\lab9.cpp:238:18
	movl	24(%rsp), %eax
	.loc	1 238 14 is_stmt 0              # D:\Code\University\algoritms\lab9\lab9.cpp:238:14
	movl	%eax, 16(%rsp)
.LBB16_1:                               # =>This Loop Header: Depth=1
                                        #     Child Loop BB16_3 Depth 2
.Ltmp157:
	.loc	1 238 26                        # D:\Code\University\algoritms\lab9\lab9.cpp:238:26
	movl	16(%rsp), %eax
	.loc	1 238 28                        # D:\Code\University\algoritms\lab9\lab9.cpp:238:28
	cmpl	20(%rsp), %eax
.Ltmp158:
	.loc	1 238 5                         # D:\Code\University\algoritms\lab9\lab9.cpp:238:5
	jge	.LBB16_10
# %bb.2:                                #   in Loop: Header=BB16_1 Depth=1
.Ltmp159:
	.loc	1 241 22 is_stmt 1              # D:\Code\University\algoritms\lab9\lab9.cpp:241:22
	movq	32(%rsp), %rax
	movq	(%rax), %rax
	movslq	16(%rsp), %rcx
	movl	(%rax,%rcx,4), %eax
	.loc	1 241 13 is_stmt 0              # D:\Code\University\algoritms\lab9\lab9.cpp:241:13
	movl	%eax, 12(%rsp)
.Ltmp160:
	.loc	1 244 18 is_stmt 1              # D:\Code\University\algoritms\lab9\lab9.cpp:244:18
	movl	16(%rsp), %eax
	.loc	1 244 20 is_stmt 0              # D:\Code\University\algoritms\lab9\lab9.cpp:244:20
	subl	$1, %eax
	.loc	1 244 16                        # D:\Code\University\algoritms\lab9\lab9.cpp:244:16
	movl	%eax, 8(%rsp)
.LBB16_3:                               #   Parent Loop BB16_1 Depth=1
                                        # =>  This Inner Loop Header: Depth=2
.Ltmp161:
	.loc	1 244 27                        # D:\Code\University\algoritms\lab9\lab9.cpp:244:27
	xorl	%eax, %eax
                                        # kill: def $al killed $al killed $eax
	cmpl	$0, 8(%rsp)
	movb	%al, 7(%rsp)                    # 1-byte Spill
	.loc	1 244 32                        # D:\Code\University\algoritms\lab9\lab9.cpp:244:32
	jl	.LBB16_5
# %bb.4:                                #   in Loop: Header=BB16_3 Depth=2
	.loc	1 244 35                        # D:\Code\University\algoritms\lab9\lab9.cpp:244:35
	movq	32(%rsp), %rax
	movq	(%rax), %rax
	movslq	8(%rsp), %rcx
	movl	(%rax,%rcx,4), %eax
	.loc	1 244 45                        # D:\Code\University\algoritms\lab9\lab9.cpp:244:45
	cmpl	12(%rsp), %eax
	setg	%al
	movb	%al, 7(%rsp)                    # 1-byte Spill
.Ltmp162:
.LBB16_5:                               #   in Loop: Header=BB16_3 Depth=2
	.loc	1 0 45                          # D:\Code\University\algoritms\lab9\lab9.cpp:0:45
	movb	7(%rsp), %al                    # 1-byte Reload
	.loc	1 244 9                         # D:\Code\University\algoritms\lab9\lab9.cpp:244:9
	testb	$1, %al
	jne	.LBB16_6
	jmp	.LBB16_8
.LBB16_6:                               #   in Loop: Header=BB16_3 Depth=2
.Ltmp163:
	.loc	1 246 29 is_stmt 1              # D:\Code\University\algoritms\lab9\lab9.cpp:246:29
	movq	32(%rsp), %rax
	movq	(%rax), %rax
	movslq	8(%rsp), %rcx
	movl	(%rax,%rcx,4), %edx
	.loc	1 246 13 is_stmt 0              # D:\Code\University\algoritms\lab9\lab9.cpp:246:13
	movq	32(%rsp), %rax
	movq	(%rax), %rax
	.loc	1 246 20                        # D:\Code\University\algoritms\lab9\lab9.cpp:246:20
	movl	8(%rsp), %ecx
	.loc	1 246 22                        # D:\Code\University\algoritms\lab9\lab9.cpp:246:22
	addl	$1, %ecx
	.loc	1 246 13                        # D:\Code\University\algoritms\lab9\lab9.cpp:246:13
	movslq	%ecx, %rcx
	.loc	1 246 27                        # D:\Code\University\algoritms\lab9\lab9.cpp:246:27
	movl	%edx, (%rax,%rcx,4)
.Ltmp164:
# %bb.7:                                #   in Loop: Header=BB16_3 Depth=2
	.loc	1 244 56 is_stmt 1              # D:\Code\University\algoritms\lab9\lab9.cpp:244:56
	movl	8(%rsp), %eax
	addl	$-1, %eax
	movl	%eax, 8(%rsp)
	.loc	1 244 9 is_stmt 0               # D:\Code\University\algoritms\lab9\lab9.cpp:244:9
	jmp	.LBB16_3
.Ltmp165:
.LBB16_8:                               #   in Loop: Header=BB16_1 Depth=1
	.loc	1 248 25 is_stmt 1              # D:\Code\University\algoritms\lab9\lab9.cpp:248:25
	movl	12(%rsp), %edx
	.loc	1 248 9 is_stmt 0               # D:\Code\University\algoritms\lab9\lab9.cpp:248:9
	movq	32(%rsp), %rax
	movq	(%rax), %rax
	.loc	1 248 16                        # D:\Code\University\algoritms\lab9\lab9.cpp:248:16
	movl	8(%rsp), %ecx
	.loc	1 248 18                        # D:\Code\University\algoritms\lab9\lab9.cpp:248:18
	addl	$1, %ecx
	.loc	1 248 9                         # D:\Code\University\algoritms\lab9\lab9.cpp:248:9
	movslq	%ecx, %rcx
	.loc	1 248 23                        # D:\Code\University\algoritms\lab9\lab9.cpp:248:23
	movl	%edx, (%rax,%rcx,4)
.Ltmp166:
# %bb.9:                                #   in Loop: Header=BB16_1 Depth=1
	.loc	1 239 11 is_stmt 1              # D:\Code\University\algoritms\lab9\lab9.cpp:239:11
	movl	16(%rsp), %eax
	addl	$1, %eax
	movl	%eax, 16(%rsp)
	.loc	1 238 5                         # D:\Code\University\algoritms\lab9\lab9.cpp:238:5
	jmp	.LBB16_1
.Ltmp167:
.LBB16_10:
	.loc	1 250 12                        # D:\Code\University\algoritms\lab9\lab9.cpp:250:12
	movq	32(%rsp), %rax
	movq	(%rax), %rax
	.loc	1 250 5 is_stmt 0               # D:\Code\University\algoritms\lab9\lab9.cpp:250:5
	.loc	1 250 5 epilogue_begin          # D:\Code\University\algoritms\lab9\lab9.cpp:250:5
	addq	$40, %rsp
	retq
.Ltmp168:
.Lfunc_end16:
	.seh_endproc
                                        # -- End function
	.def	_Z13PartShellSortRPiiiii;
	.scl	2;
	.type	32;
	.endef
	.globl	_Z13PartShellSortRPiiiii        # -- Begin function _Z13PartShellSortRPiiiii
	.p2align	4, 0x90
_Z13PartShellSortRPiiiii:               # @_Z13PartShellSortRPiiiii
.Lfunc_begin17:
	.loc	1 254 0 is_stmt 1               # D:\Code\University\algoritms\lab9\lab9.cpp:254:0
.seh_proc _Z13PartShellSortRPiiiii
# %bb.0:
	subq	$72, %rsp
	.seh_stackalloc 72
	.seh_endprologue
	movl	112(%rsp), %eax
	movq	%rcx, 56(%rsp)
	movl	%edx, 52(%rsp)
	movl	%r8d, 48(%rsp)
	movl	%r9d, 44(%rsp)
.Ltmp169:
	.loc	1 255 16 prologue_end           # D:\Code\University\algoritms\lab9\lab9.cpp:255:16
	movl	112(%rsp), %eax
	.loc	1 255 25 is_stmt 0              # D:\Code\University\algoritms\lab9\lab9.cpp:255:25
	movl	$2, %ecx
	cltd
	idivl	%ecx
	.loc	1 255 14                        # D:\Code\University\algoritms\lab9\lab9.cpp:255:14
	movl	%eax, 112(%rsp)
.Ltmp170:
	.loc	1 256 18 is_stmt 1              # D:\Code\University\algoritms\lab9\lab9.cpp:256:18
	cmpl	$0, 112(%rsp)
.Ltmp171:
	.loc	1 256 9 is_stmt 0               # D:\Code\University\algoritms\lab9\lab9.cpp:256:9
	jg	.LBB17_2
# %bb.1:
.Ltmp172:
	.loc	1 258 16 is_stmt 1              # D:\Code\University\algoritms\lab9\lab9.cpp:258:16
	movq	56(%rsp), %rax
	movq	(%rax), %rax
	.loc	1 258 9 is_stmt 0               # D:\Code\University\algoritms\lab9\lab9.cpp:258:9
	movq	%rax, 64(%rsp)
	jmp	.LBB17_3
.Ltmp173:
.LBB17_2:
	.loc	1 262 28 is_stmt 1              # D:\Code\University\algoritms\lab9\lab9.cpp:262:28
	movq	56(%rsp), %rcx
	.loc	1 262 36 is_stmt 0              # D:\Code\University\algoritms\lab9\lab9.cpp:262:36
	movl	52(%rsp), %edx
	.loc	1 262 43                        # D:\Code\University\algoritms\lab9\lab9.cpp:262:43
	movl	48(%rsp), %r8d
	.loc	1 262 51                        # D:\Code\University\algoritms\lab9\lab9.cpp:262:51
	movl	112(%rsp), %r9d
	.loc	1 262 14                        # D:\Code\University\algoritms\lab9\lab9.cpp:262:14
	callq	_Z13InsertionSortRPiiii
	movq	%rax, %rcx
	.loc	1 262 5                         # D:\Code\University\algoritms\lab9\lab9.cpp:262:5
	movq	56(%rsp), %rax
	.loc	1 262 12                        # D:\Code\University\algoritms\lab9\lab9.cpp:262:12
	movq	%rcx, (%rax)
	.loc	1 263 28 is_stmt 1              # D:\Code\University\algoritms\lab9\lab9.cpp:263:28
	movq	56(%rsp), %rcx
	.loc	1 263 36 is_stmt 0              # D:\Code\University\algoritms\lab9\lab9.cpp:263:36
	movl	52(%rsp), %edx
	.loc	1 263 43                        # D:\Code\University\algoritms\lab9\lab9.cpp:263:43
	movl	112(%rsp), %r8d
	.loc	1 263 53                        # D:\Code\University\algoritms\lab9\lab9.cpp:263:53
	movl	44(%rsp), %r9d
	.loc	1 263 14                        # D:\Code\University\algoritms\lab9\lab9.cpp:263:14
	callq	_Z13InsertionSortRPiiii
	movq	%rax, %rcx
	.loc	1 263 5                         # D:\Code\University\algoritms\lab9\lab9.cpp:263:5
	movq	56(%rsp), %rax
	.loc	1 263 12                        # D:\Code\University\algoritms\lab9\lab9.cpp:263:12
	movq	%rcx, (%rax)
	.loc	1 266 28 is_stmt 1              # D:\Code\University\algoritms\lab9\lab9.cpp:266:28
	movq	56(%rsp), %rcx
	.loc	1 266 36 is_stmt 0              # D:\Code\University\algoritms\lab9\lab9.cpp:266:36
	movl	52(%rsp), %edx
	.loc	1 266 43                        # D:\Code\University\algoritms\lab9\lab9.cpp:266:43
	movl	48(%rsp), %r8d
	.loc	1 266 51                        # D:\Code\University\algoritms\lab9\lab9.cpp:266:51
	movl	112(%rsp), %r9d
	.loc	1 266 61                        # D:\Code\University\algoritms\lab9\lab9.cpp:266:61
	movl	112(%rsp), %eax
	.loc	1 266 14                        # D:\Code\University\algoritms\lab9\lab9.cpp:266:14
	movl	%eax, 32(%rsp)
	callq	_Z13PartShellSortRPiiiii
	movq	%rax, %rcx
	.loc	1 266 5                         # D:\Code\University\algoritms\lab9\lab9.cpp:266:5
	movq	56(%rsp), %rax
	.loc	1 266 12                        # D:\Code\University\algoritms\lab9\lab9.cpp:266:12
	movq	%rcx, (%rax)
	.loc	1 267 28 is_stmt 1              # D:\Code\University\algoritms\lab9\lab9.cpp:267:28
	movq	56(%rsp), %rcx
	.loc	1 267 36 is_stmt 0              # D:\Code\University\algoritms\lab9\lab9.cpp:267:36
	movl	52(%rsp), %edx
	.loc	1 267 43                        # D:\Code\University\algoritms\lab9\lab9.cpp:267:43
	movl	112(%rsp), %r8d
	.loc	1 267 53                        # D:\Code\University\algoritms\lab9\lab9.cpp:267:53
	movl	44(%rsp), %r9d
	.loc	1 267 59                        # D:\Code\University\algoritms\lab9\lab9.cpp:267:59
	movl	112(%rsp), %eax
	.loc	1 267 14                        # D:\Code\University\algoritms\lab9\lab9.cpp:267:14
	movl	%eax, 32(%rsp)
	callq	_Z13PartShellSortRPiiiii
	movq	%rax, %rcx
	.loc	1 267 5                         # D:\Code\University\algoritms\lab9\lab9.cpp:267:5
	movq	56(%rsp), %rax
	.loc	1 267 12                        # D:\Code\University\algoritms\lab9\lab9.cpp:267:12
	movq	%rcx, (%rax)
	.loc	1 269 12 is_stmt 1              # D:\Code\University\algoritms\lab9\lab9.cpp:269:12
	movq	56(%rsp), %rax
	movq	(%rax), %rax
	.loc	1 269 5 is_stmt 0               # D:\Code\University\algoritms\lab9\lab9.cpp:269:5
	movq	%rax, 64(%rsp)
.LBB17_3:
	.loc	1 270 1 is_stmt 1               # D:\Code\University\algoritms\lab9\lab9.cpp:270:1
	movq	64(%rsp), %rax
	.loc	1 270 1 epilogue_begin is_stmt 0 # D:\Code\University\algoritms\lab9\lab9.cpp:270:1
	addq	$72, %rsp
	retq
.Ltmp174:
.Lfunc_end17:
	.seh_endproc
                                        # -- End function
	.def	_Z11ArrayToHeapRPiii;
	.scl	2;
	.type	32;
	.endef
	.globl	_Z11ArrayToHeapRPiii            # -- Begin function _Z11ArrayToHeapRPiii
	.p2align	4, 0x90
_Z11ArrayToHeapRPiii:                   # @_Z11ArrayToHeapRPiii
.Lfunc_begin18:
	.loc	1 282 0 is_stmt 1               # D:\Code\University\algoritms\lab9\lab9.cpp:282:0
.seh_proc _Z11ArrayToHeapRPiii
# %bb.0:
	subq	$72, %rsp
	.seh_stackalloc 72
	.seh_endprologue
	movq	%rcx, 64(%rsp)
	movl	%edx, 60(%rsp)
	movl	%r8d, 56(%rsp)
.Ltmp175:
	.loc	1 284 21 prologue_end           # D:\Code\University\algoritms\lab9\lab9.cpp:284:21
	movl	56(%rsp), %eax
	.loc	1 284 9 is_stmt 0               # D:\Code\University\algoritms\lab9\lab9.cpp:284:9
	movl	%eax, 48(%rsp)
	.loc	1 285 25 is_stmt 1              # D:\Code\University\algoritms\lab9\lab9.cpp:285:25
	movl	56(%rsp), %eax
	.loc	1 285 23 is_stmt 0              # D:\Code\University\algoritms\lab9\lab9.cpp:285:23
	shll	%eax
	.loc	1 285 32                        # D:\Code\University\algoritms\lab9\lab9.cpp:285:32
	addl	$1, %eax
	.loc	1 285 9                         # D:\Code\University\algoritms\lab9\lab9.cpp:285:9
	movl	%eax, 44(%rsp)
	.loc	1 286 26 is_stmt 1              # D:\Code\University\algoritms\lab9\lab9.cpp:286:26
	movl	56(%rsp), %eax
	.loc	1 286 24 is_stmt 0              # D:\Code\University\algoritms\lab9\lab9.cpp:286:24
	shll	%eax
	.loc	1 286 33                        # D:\Code\University\algoritms\lab9\lab9.cpp:286:33
	addl	$2, %eax
	.loc	1 286 9                         # D:\Code\University\algoritms\lab9\lab9.cpp:286:9
	movl	%eax, 40(%rsp)
.Ltmp176:
	.loc	1 289 9 is_stmt 1               # D:\Code\University\algoritms\lab9\lab9.cpp:289:9
	movl	44(%rsp), %eax
	.loc	1 289 19 is_stmt 0              # D:\Code\University\algoritms\lab9\lab9.cpp:289:19
	cmpl	60(%rsp), %eax
	.loc	1 289 27                        # D:\Code\University\algoritms\lab9\lab9.cpp:289:27
	jge	.LBB18_3
# %bb.1:
	.loc	1 289 30                        # D:\Code\University\algoritms\lab9\lab9.cpp:289:30
	movq	64(%rsp), %rax
	movq	(%rax), %rax
	movslq	44(%rsp), %rcx
	movl	(%rax,%rcx,4), %eax
	.loc	1 289 50                        # D:\Code\University\algoritms\lab9\lab9.cpp:289:50
	movq	64(%rsp), %rcx
	movq	(%rcx), %rcx
	movslq	48(%rsp), %rdx
	.loc	1 289 48                        # D:\Code\University\algoritms\lab9\lab9.cpp:289:48
	cmpl	(%rcx,%rdx,4), %eax
.Ltmp177:
	.loc	1 289 9                         # D:\Code\University\algoritms\lab9\lab9.cpp:289:9
	jle	.LBB18_3
# %bb.2:
.Ltmp178:
	.loc	1 291 21 is_stmt 1              # D:\Code\University\algoritms\lab9\lab9.cpp:291:21
	movl	44(%rsp), %eax
	.loc	1 291 19 is_stmt 0              # D:\Code\University\algoritms\lab9\lab9.cpp:291:19
	movl	%eax, 48(%rsp)
.Ltmp179:
.LBB18_3:
	.loc	1 295 9 is_stmt 1               # D:\Code\University\algoritms\lab9\lab9.cpp:295:9
	movl	40(%rsp), %eax
	.loc	1 295 20 is_stmt 0              # D:\Code\University\algoritms\lab9\lab9.cpp:295:20
	cmpl	60(%rsp), %eax
	.loc	1 295 28                        # D:\Code\University\algoritms\lab9\lab9.cpp:295:28
	jge	.LBB18_6
# %bb.4:
	.loc	1 295 31                        # D:\Code\University\algoritms\lab9\lab9.cpp:295:31
	movq	64(%rsp), %rax
	movq	(%rax), %rax
	movslq	40(%rsp), %rcx
	movl	(%rax,%rcx,4), %eax
	.loc	1 295 52                        # D:\Code\University\algoritms\lab9\lab9.cpp:295:52
	movq	64(%rsp), %rcx
	movq	(%rcx), %rcx
	movslq	48(%rsp), %rdx
	.loc	1 295 50                        # D:\Code\University\algoritms\lab9\lab9.cpp:295:50
	cmpl	(%rcx,%rdx,4), %eax
.Ltmp180:
	.loc	1 295 9                         # D:\Code\University\algoritms\lab9\lab9.cpp:295:9
	jle	.LBB18_6
# %bb.5:
.Ltmp181:
	.loc	1 297 21 is_stmt 1              # D:\Code\University\algoritms\lab9\lab9.cpp:297:21
	movl	40(%rsp), %eax
	.loc	1 297 19 is_stmt 0              # D:\Code\University\algoritms\lab9\lab9.cpp:297:19
	movl	%eax, 48(%rsp)
.Ltmp182:
.LBB18_6:
	.loc	1 301 9 is_stmt 1               # D:\Code\University\algoritms\lab9\lab9.cpp:301:9
	movl	48(%rsp), %eax
	.loc	1 301 19 is_stmt 0              # D:\Code\University\algoritms\lab9\lab9.cpp:301:19
	cmpl	56(%rsp), %eax
.Ltmp183:
	.loc	1 301 9                         # D:\Code\University\algoritms\lab9\lab9.cpp:301:9
	je	.LBB18_8
# %bb.7:
.Ltmp184:
	.loc	1 303 16 is_stmt 1              # D:\Code\University\algoritms\lab9\lab9.cpp:303:16
	movq	64(%rsp), %rax
	movq	(%rax), %rax
	movslq	56(%rsp), %rcx
	movl	(%rax,%rcx,4), %eax
	.loc	1 303 14 is_stmt 0              # D:\Code\University\algoritms\lab9\lab9.cpp:303:14
	movl	%eax, 52(%rsp)
	.loc	1 304 26 is_stmt 1              # D:\Code\University\algoritms\lab9\lab9.cpp:304:26
	movq	64(%rsp), %rax
	movq	(%rax), %rax
	movslq	48(%rsp), %rcx
	movl	(%rax,%rcx,4), %edx
	.loc	1 304 9 is_stmt 0               # D:\Code\University\algoritms\lab9\lab9.cpp:304:9
	movq	64(%rsp), %rax
	movq	(%rax), %rax
	movslq	56(%rsp), %rcx
	.loc	1 304 24                        # D:\Code\University\algoritms\lab9\lab9.cpp:304:24
	movl	%edx, (%rax,%rcx,4)
	.loc	1 305 29 is_stmt 1              # D:\Code\University\algoritms\lab9\lab9.cpp:305:29
	movl	52(%rsp), %edx
	.loc	1 305 9 is_stmt 0               # D:\Code\University\algoritms\lab9\lab9.cpp:305:9
	movq	64(%rsp), %rax
	movq	(%rax), %rax
	movslq	48(%rsp), %rcx
	.loc	1 305 27                        # D:\Code\University\algoritms\lab9\lab9.cpp:305:27
	movl	%edx, (%rax,%rcx,4)
	.loc	1 308 30 is_stmt 1              # D:\Code\University\algoritms\lab9\lab9.cpp:308:30
	movq	64(%rsp), %rcx
	.loc	1 308 38 is_stmt 0              # D:\Code\University\algoritms\lab9\lab9.cpp:308:38
	movl	60(%rsp), %edx
	.loc	1 308 45                        # D:\Code\University\algoritms\lab9\lab9.cpp:308:45
	movl	48(%rsp), %r8d
	.loc	1 308 18                        # D:\Code\University\algoritms\lab9\lab9.cpp:308:18
	callq	_Z11ArrayToHeapRPiii
	movq	%rax, %rcx
	.loc	1 308 9                         # D:\Code\University\algoritms\lab9\lab9.cpp:308:9
	movq	64(%rsp), %rax
	.loc	1 308 16                        # D:\Code\University\algoritms\lab9\lab9.cpp:308:16
	movq	%rcx, (%rax)
.Ltmp185:
.LBB18_8:
	.loc	1 311 12 is_stmt 1              # D:\Code\University\algoritms\lab9\lab9.cpp:311:12
	movq	64(%rsp), %rax
	movq	(%rax), %rax
	.loc	1 311 5 is_stmt 0               # D:\Code\University\algoritms\lab9\lab9.cpp:311:5
	.loc	1 311 5 epilogue_begin          # D:\Code\University\algoritms\lab9\lab9.cpp:311:5
	addq	$72, %rsp
	retq
.Ltmp186:
.Lfunc_end18:
	.seh_endproc
                                        # -- End function
	.def	_ZNSt7__cxx1112basic_stringIcSt11char_traitsIcESaIcEEC2IS3_EEycRKS3_;
	.scl	2;
	.type	32;
	.endef
	.section	.text$_ZNSt7__cxx1112basic_stringIcSt11char_traitsIcESaIcEEC2IS3_EEycRKS3_,"xr",discard,_ZNSt7__cxx1112basic_stringIcSt11char_traitsIcESaIcEEC2IS3_EEycRKS3_
	.globl	_ZNSt7__cxx1112basic_stringIcSt11char_traitsIcESaIcEEC2IS3_EEycRKS3_ # -- Begin function _ZNSt7__cxx1112basic_stringIcSt11char_traitsIcESaIcEEC2IS3_EEycRKS3_
	.p2align	4, 0x90
_ZNSt7__cxx1112basic_stringIcSt11char_traitsIcESaIcEEC2IS3_EEycRKS3_: # @_ZNSt7__cxx1112basic_stringIcSt11char_traitsIcESaIcEEC2IS3_EEycRKS3_
.Lfunc_begin19:
	.loc	14 671 0 is_stmt 1              # C:/mingw64/include/c++/14.2.0/bits/basic_string.h:671:0
.seh_proc _ZNSt7__cxx1112basic_stringIcSt11char_traitsIcESaIcEEC2IS3_EEycRKS3_
	.seh_handler __gxx_personality_seh0, @unwind, @except
# %bb.0:
	subq	$104, %rsp
	.seh_stackalloc 104
	.seh_endprologue
	movq	%rcx, 96(%rsp)
	movq	%rdx, 88(%rsp)
	movb	%r8b, 87(%rsp)
	movq	%r9, 72(%rsp)
	movq	96(%rsp), %rcx
	movq	%rcx, 48(%rsp)                  # 8-byte Spill
.Ltmp190:
	.loc	14 670 21 prologue_end          # C:/mingw64/include/c++/14.2.0/bits/basic_string.h:670:21
	callq	_ZNSt7__cxx1112basic_stringIcSt11char_traitsIcESaIcEE13_M_local_dataEv
	movq	48(%rsp), %rcx                  # 8-byte Reload
	movq	%rax, %rdx
	.loc	14 670 38 is_stmt 0             # C:/mingw64/include/c++/14.2.0/bits/basic_string.h:670:38
	movq	72(%rsp), %r8
	.loc	14 670 9                        # C:/mingw64/include/c++/14.2.0/bits/basic_string.h:670:9
	callq	_ZNSt7__cxx1112basic_stringIcSt11char_traitsIcESaIcEE12_Alloc_hiderC2EPcRKS3_
	movq	48(%rsp), %rcx                  # 8-byte Reload
.Ltmp191:
	.loc	14 671 22 is_stmt 1             # C:/mingw64/include/c++/14.2.0/bits/basic_string.h:671:22
	movq	88(%rsp), %rdx
	.loc	14 671 27 is_stmt 0             # C:/mingw64/include/c++/14.2.0/bits/basic_string.h:671:27
	movb	87(%rsp), %r8b
.Ltmp187:
	.loc	14 671 9                        # C:/mingw64/include/c++/14.2.0/bits/basic_string.h:671:9
	callq	_ZNSt7__cxx1112basic_stringIcSt11char_traitsIcESaIcEE12_M_constructEyc
.Ltmp188:
	jmp	.LBB19_1
.Ltmp192:
.LBB19_1:
	.loc	14 671 33                       # C:/mingw64/include/c++/14.2.0/bits/basic_string.h:671:33
	.loc	14 671 33 epilogue_begin        # C:/mingw64/include/c++/14.2.0/bits/basic_string.h:671:33
	addq	$104, %rsp
	retq
.LBB19_2:
.Ltmp189:
	.loc	14 0 33                         # C:/mingw64/include/c++/14.2.0/bits/basic_string.h:0:33
	movq	48(%rsp), %rcx                  # 8-byte Reload
	movq	%rdx, 40(%rsp)                  # 8-byte Spill
	movq	%rax, %rdx
	movq	40(%rsp), %rax                  # 8-byte Reload
                                        # kill: def $eax killed $eax killed $rax
.Ltmp193:
	.loc	14 671 33                       # C:/mingw64/include/c++/14.2.0/bits/basic_string.h:671:33
	movq	%rdx, 64(%rsp)
	movl	%eax, 60(%rsp)
	callq	_ZNSt7__cxx1112basic_stringIcSt11char_traitsIcESaIcEE12_Alloc_hiderD2Ev
# %bb.3:
	movq	64(%rsp), %rcx
	callq	_Unwind_Resume
	int3
.Ltmp194:
.Lfunc_end19:
	.seh_handlerdata
	.section	.text$_ZNSt7__cxx1112basic_stringIcSt11char_traitsIcESaIcEEC2IS3_EEycRKS3_,"xr",discard,_ZNSt7__cxx1112basic_stringIcSt11char_traitsIcESaIcEEC2IS3_EEycRKS3_
	.seh_endproc
	.section	.xdata$_ZNSt7__cxx1112basic_stringIcSt11char_traitsIcESaIcEEC2IS3_EEycRKS3_,"dr"
	.linkonce	discard
	.p2align	2, 0x0
GCC_except_table19:
.Lexception1:
	.byte	255                             # @LPStart Encoding = omit
	.byte	255                             # @TType Encoding = omit
	.byte	1                               # Call site Encoding = uleb128
	.uleb128 .Lcst_end1-.Lcst_begin1
.Lcst_begin1:
	.uleb128 .Lfunc_begin19-.Lfunc_begin19  # >> Call Site 1 <<
	.uleb128 .Ltmp187-.Lfunc_begin19        #   Call between .Lfunc_begin19 and .Ltmp187
	.byte	0                               #     has no landing pad
	.byte	0                               #   On action: cleanup
	.uleb128 .Ltmp187-.Lfunc_begin19        # >> Call Site 2 <<
	.uleb128 .Ltmp188-.Ltmp187              #   Call between .Ltmp187 and .Ltmp188
	.uleb128 .Ltmp189-.Lfunc_begin19        #     jumps to .Ltmp189
	.byte	0                               #   On action: cleanup
	.uleb128 .Ltmp188-.Lfunc_begin19        # >> Call Site 3 <<
	.uleb128 .Lfunc_end19-.Ltmp188          #   Call between .Ltmp188 and .Lfunc_end19
	.byte	0                               #     has no landing pad
	.byte	0                               #   On action: cleanup
.Lcst_end1:
	.p2align	2, 0x0
	.section	.text$_ZNSt7__cxx1112basic_stringIcSt11char_traitsIcESaIcEEC2IS3_EEycRKS3_,"xr",discard,_ZNSt7__cxx1112basic_stringIcSt11char_traitsIcESaIcEEC2IS3_EEycRKS3_
                                        # -- End function
	.def	_ZSt4setwi;
	.scl	2;
	.type	32;
	.endef
	.section	.text$_ZSt4setwi,"xr",discard,_ZSt4setwi
	.globl	_ZSt4setwi                      # -- Begin function _ZSt4setwi
	.p2align	4, 0x90
_ZSt4setwi:                             # @_ZSt4setwi
.Lfunc_begin20:
	.file	19 "C:/mingw64/include/c++/14.2.0" "iomanip"
	.loc	19 233 0 is_stmt 1              # C:/mingw64/include/c++/14.2.0/iomanip:233:0
.seh_proc _ZSt4setwi
# %bb.0:
	pushq	%rax
	.seh_stackalloc 8
	.seh_endprologue
	movl	%ecx, (%rsp)
.Ltmp195:
	.loc	19 233 14 prologue_end          # C:/mingw64/include/c++/14.2.0/iomanip:233:14
	movl	(%rsp), %eax
	.loc	19 233 12 is_stmt 0             # C:/mingw64/include/c++/14.2.0/iomanip:233:12
	movl	%eax, 4(%rsp)
	.loc	19 233 5                        # C:/mingw64/include/c++/14.2.0/iomanip:233:5
	movl	4(%rsp), %eax
	.loc	19 233 5 epilogue_begin         # C:/mingw64/include/c++/14.2.0/iomanip:233:5
	popq	%rcx
	retq
.Ltmp196:
.Lfunc_end20:
	.seh_endproc
                                        # -- End function
	.def	_Z20autoSortTestForArrayPFPiRS_iEPFvS0_iEi;
	.scl	2;
	.type	32;
	.endef
	.text
	.globl	_Z20autoSortTestForArrayPFPiRS_iEPFvS0_iEi # -- Begin function _Z20autoSortTestForArrayPFPiRS_iEPFvS0_iEi
	.p2align	4, 0x90
_Z20autoSortTestForArrayPFPiRS_iEPFvS0_iEi: # @_Z20autoSortTestForArrayPFPiRS_iEPFvS0_iEi
.Lfunc_begin21:
	.loc	1 435 0 is_stmt 1               # D:\Code\University\algoritms\lab9\lab9.cpp:435:0
.seh_proc _Z20autoSortTestForArrayPFPiRS_iEPFvS0_iEi
# %bb.0:
	subq	$104, %rsp
	.seh_stackalloc 104
	.seh_endprologue
	movq	%rcx, 96(%rsp)
	movq	%rdx, 88(%rsp)
	movl	%r8d, 84(%rsp)
.Ltmp197:
	.loc	1 436 30 prologue_end           # D:\Code\University\algoritms\lab9\lab9.cpp:436:30
	movslq	84(%rsp), %rax
	.loc	1 436 22 is_stmt 0              # D:\Code\University\algoritms\lab9\lab9.cpp:436:22
	movl	$4, %ecx
	mulq	%rcx
	movq	%rax, %rcx
	seto	%dl
	movq	$-1, %rax
	testb	$1, %dl
	cmovneq	%rax, %rcx
	movq	%rcx, 40(%rsp)                  # 8-byte Spill
	callq	_Znay
	movq	40(%rsp), %r8                   # 8-byte Reload
	movq	%rax, %rcx
	movq	%rcx, 48(%rsp)                  # 8-byte Spill
	xorl	%edx, %edx
	callq	memset
	movq	48(%rsp), %rax                  # 8-byte Reload
	.loc	1 436 10                        # D:\Code\University\algoritms\lab9\lab9.cpp:436:10
	movq	%rax, 72(%rsp)
	.loc	1 437 5 is_stmt 1               # D:\Code\University\algoritms\lab9\lab9.cpp:437:5
	movq	88(%rsp), %rax
	.loc	1 437 21 is_stmt 0              # D:\Code\University\algoritms\lab9\lab9.cpp:437:21
	movl	84(%rsp), %edx
	.loc	1 437 5                         # D:\Code\University\algoritms\lab9\lab9.cpp:437:5
	leaq	72(%rsp), %rcx
	callq	*%rax
	.loc	1 438 15 is_stmt 1              # D:\Code\University\algoritms\lab9\lab9.cpp:438:15
	movq	$0, 64(%rsp)
	.loc	1 439 27                        # D:\Code\University\algoritms\lab9\lab9.cpp:439:27
	movq	96(%rsp), %rcx
	.loc	1 439 44 is_stmt 0              # D:\Code\University\algoritms\lab9\lab9.cpp:439:44
	movl	84(%rsp), %r8d
	.loc	1 439 17                        # D:\Code\University\algoritms\lab9\lab9.cpp:439:17
	leaq	72(%rsp), %rdx
	leaq	64(%rsp), %r9
	callq	_Z9ArraySortPFPiRS_iES0_iRx
	.loc	1 439 15                        # D:\Code\University\algoritms\lab9\lab9.cpp:439:15
	movq	%rax, 72(%rsp)
	.loc	1 440 14 is_stmt 1              # D:\Code\University\algoritms\lab9\lab9.cpp:440:14
	movq	72(%rsp), %rax
	movq	%rax, 56(%rsp)                  # 8-byte Spill
	.loc	1 440 5 is_stmt 0               # D:\Code\University\algoritms\lab9\lab9.cpp:440:5
	cmpq	$0, %rax
	je	.LBB21_2
# %bb.1:
	.loc	1 0 5                           # D:\Code\University\algoritms\lab9\lab9.cpp:0:5
	movq	56(%rsp), %rcx                  # 8-byte Reload
	.loc	1 440 5                         # D:\Code\University\algoritms\lab9\lab9.cpp:440:5
	callq	_ZdaPv
.LBB21_2:
	.loc	1 441 15 is_stmt 1              # D:\Code\University\algoritms\lab9\lab9.cpp:441:15
	movq	$0, 72(%rsp)
	.loc	1 442 12                        # D:\Code\University\algoritms\lab9\lab9.cpp:442:12
	movq	64(%rsp), %rax
	.loc	1 442 5 is_stmt 0               # D:\Code\University\algoritms\lab9\lab9.cpp:442:5
	.loc	1 442 5 epilogue_begin          # D:\Code\University\algoritms\lab9\lab9.cpp:442:5
	addq	$104, %rsp
	retq
.Ltmp198:
.Lfunc_end21:
	.seh_endproc
                                        # -- End function
	.def	_ZNSt6chrono20__duration_cast_implINS_8durationIxSt5ratioILx1ELx1000000EEEES2_ILx1ELx1000EExLb1ELb0EE6__castIxS2_ILx1ELx1000000000EEEES4_RKNS1_IT_T0_EE;
	.scl	2;
	.type	32;
	.endef
	.section	.text$_ZNSt6chrono20__duration_cast_implINS_8durationIxSt5ratioILx1ELx1000000EEEES2_ILx1ELx1000EExLb1ELb0EE6__castIxS2_ILx1ELx1000000000EEEES4_RKNS1_IT_T0_EE,"xr",discard,_ZNSt6chrono20__duration_cast_implINS_8durationIxSt5ratioILx1ELx1000000EEEES2_ILx1ELx1000EExLb1ELb0EE6__castIxS2_ILx1ELx1000000000EEEES4_RKNS1_IT_T0_EE
	.globl	_ZNSt6chrono20__duration_cast_implINS_8durationIxSt5ratioILx1ELx1000000EEEES2_ILx1ELx1000EExLb1ELb0EE6__castIxS2_ILx1ELx1000000000EEEES4_RKNS1_IT_T0_EE # -- Begin function _ZNSt6chrono20__duration_cast_implINS_8durationIxSt5ratioILx1ELx1000000EEEES2_ILx1ELx1000EExLb1ELb0EE6__castIxS2_ILx1ELx1000000000EEEES4_RKNS1_IT_T0_EE
	.p2align	4, 0x90
_ZNSt6chrono20__duration_cast_implINS_8durationIxSt5ratioILx1ELx1000000EEEES2_ILx1ELx1000EExLb1ELb0EE6__castIxS2_ILx1ELx1000000000EEEES4_RKNS1_IT_T0_EE: # @_ZNSt6chrono20__duration_cast_implINS_8durationIxSt5ratioILx1ELx1000000EEEES2_ILx1ELx1000EExLb1ELb0EE6__castIxS2_ILx1ELx1000000000EEEES4_RKNS1_IT_T0_EE
.Lfunc_begin22:
	.loc	4 211 0 is_stmt 1               # C:/mingw64/include/c++/14.2.0/bits/chrono.h:211:0
.seh_proc _ZNSt6chrono20__duration_cast_implINS_8durationIxSt5ratioILx1ELx1000000EEEES2_ILx1ELx1000EExLb1ELb0EE6__castIxS2_ILx1ELx1000000000EEEES4_RKNS1_IT_T0_EE
# %bb.0:
	subq	$56, %rsp
	.seh_stackalloc 56
	.seh_endprologue
	movq	%rcx, 40(%rsp)
.Ltmp199:
	.loc	4 214 25 prologue_end           # C:/mingw64/include/c++/14.2.0/bits/chrono.h:214:25
	movq	40(%rsp), %rcx
	.loc	4 214 29 is_stmt 0              # C:/mingw64/include/c++/14.2.0/bits/chrono.h:214:29
	callq	_ZNKSt6chrono8durationIxSt5ratioILx1ELx1000000000EEE5countEv
	.loc	4 214 38                        # C:/mingw64/include/c++/14.2.0/bits/chrono.h:214:38
	movl	$1000, %ecx                     # imm = 0x3E8
	cqto
	idivq	%rcx
	.loc	4 213 20 is_stmt 1              # C:/mingw64/include/c++/14.2.0/bits/chrono.h:213:20
	movq	%rax, 32(%rsp)
	.loc	4 213 13 is_stmt 0              # C:/mingw64/include/c++/14.2.0/bits/chrono.h:213:13
	leaq	48(%rsp), %rcx
	leaq	32(%rsp), %rdx
	callq	_ZNSt6chrono8durationIxSt5ratioILx1ELx1000000EEEC2IxvEERKT_
	.loc	4 213 6                         # C:/mingw64/include/c++/14.2.0/bits/chrono.h:213:6
	movq	48(%rsp), %rax
	.loc	4 213 6 epilogue_begin          # C:/mingw64/include/c++/14.2.0/bits/chrono.h:213:6
	addq	$56, %rsp
	retq
.Ltmp200:
.Lfunc_end22:
	.seh_endproc
                                        # -- End function
	.def	_ZNKSt6chrono8durationIxSt5ratioILx1ELx1000000000EEE5countEv;
	.scl	2;
	.type	32;
	.endef
	.section	.text$_ZNKSt6chrono8durationIxSt5ratioILx1ELx1000000000EEE5countEv,"xr",discard,_ZNKSt6chrono8durationIxSt5ratioILx1ELx1000000000EEE5countEv
	.globl	_ZNKSt6chrono8durationIxSt5ratioILx1ELx1000000000EEE5countEv # -- Begin function _ZNKSt6chrono8durationIxSt5ratioILx1ELx1000000000EEE5countEv
	.p2align	4, 0x90
_ZNKSt6chrono8durationIxSt5ratioILx1ELx1000000000EEE5countEv: # @_ZNKSt6chrono8durationIxSt5ratioILx1ELx1000000000EEE5countEv
.Lfunc_begin23:
	.loc	4 590 0 is_stmt 1               # C:/mingw64/include/c++/14.2.0/bits/chrono.h:590:0
.seh_proc _ZNKSt6chrono8durationIxSt5ratioILx1ELx1000000000EEE5countEv
# %bb.0:
	pushq	%rax
	.seh_stackalloc 8
	.seh_endprologue
	movq	%rcx, (%rsp)
	movq	(%rsp), %rax
.Ltmp201:
	.loc	4 590 11 prologue_end           # C:/mingw64/include/c++/14.2.0/bits/chrono.h:590:11
	movq	(%rax), %rax
	.loc	4 590 4 is_stmt 0               # C:/mingw64/include/c++/14.2.0/bits/chrono.h:590:4
	.loc	4 590 4 epilogue_begin          # C:/mingw64/include/c++/14.2.0/bits/chrono.h:590:4
	popq	%rcx
	retq
.Ltmp202:
.Lfunc_end23:
	.seh_endproc
                                        # -- End function
	.def	_ZNSt6chrono8durationIxSt5ratioILx1ELx1000000EEEC2IxvEERKT_;
	.scl	2;
	.type	32;
	.endef
	.section	.text$_ZNSt6chrono8durationIxSt5ratioILx1ELx1000000EEEC2IxvEERKT_,"xr",discard,_ZNSt6chrono8durationIxSt5ratioILx1ELx1000000EEEC2IxvEERKT_
	.globl	_ZNSt6chrono8durationIxSt5ratioILx1ELx1000000EEEC2IxvEERKT_ # -- Begin function _ZNSt6chrono8durationIxSt5ratioILx1ELx1000000EEEC2IxvEERKT_
	.p2align	4, 0x90
_ZNSt6chrono8durationIxSt5ratioILx1ELx1000000EEEC2IxvEERKT_: # @_ZNSt6chrono8durationIxSt5ratioILx1ELx1000000EEEC2IxvEERKT_
.Lfunc_begin24:
	.loc	4 574 0 is_stmt 1               # C:/mingw64/include/c++/14.2.0/bits/chrono.h:574:0
.seh_proc _ZNSt6chrono8durationIxSt5ratioILx1ELx1000000EEEC2IxvEERKT_
# %bb.0:
	subq	$16, %rsp
	.seh_stackalloc 16
	.seh_endprologue
	movq	%rcx, 8(%rsp)
	movq	%rdx, (%rsp)
	movq	8(%rsp), %rax
.Ltmp203:
	.loc	4 574 27 prologue_end           # C:/mingw64/include/c++/14.2.0/bits/chrono.h:574:27
	movq	(%rsp), %rcx
	movq	(%rcx), %rcx
	.loc	4 574 6 is_stmt 0               # C:/mingw64/include/c++/14.2.0/bits/chrono.h:574:6
	movq	%rcx, (%rax)
	.loc	4 574 37                        # C:/mingw64/include/c++/14.2.0/bits/chrono.h:574:37
	.loc	4 574 37 epilogue_begin         # C:/mingw64/include/c++/14.2.0/bits/chrono.h:574:37
	addq	$16, %rsp
	retq
.Ltmp204:
.Lfunc_end24:
	.seh_endproc
                                        # -- End function
	.def	_ZNSt6chronomiIxSt5ratioILx1ELx1000000000EExS2_EENSt11common_typeIJNS_8durationIT_T0_EENS4_IT1_T2_EEEE4typeERKS7_RKSA_;
	.scl	2;
	.type	32;
	.endef
	.section	.text$_ZNSt6chronomiIxSt5ratioILx1ELx1000000000EExS2_EENSt11common_typeIJNS_8durationIT_T0_EENS4_IT1_T2_EEEE4typeERKS7_RKSA_,"xr",discard,_ZNSt6chronomiIxSt5ratioILx1ELx1000000000EExS2_EENSt11common_typeIJNS_8durationIT_T0_EENS4_IT1_T2_EEEE4typeERKS7_RKSA_
	.globl	_ZNSt6chronomiIxSt5ratioILx1ELx1000000000EExS2_EENSt11common_typeIJNS_8durationIT_T0_EENS4_IT1_T2_EEEE4typeERKS7_RKSA_ # -- Begin function _ZNSt6chronomiIxSt5ratioILx1ELx1000000000EExS2_EENSt11common_typeIJNS_8durationIT_T0_EENS4_IT1_T2_EEEE4typeERKS7_RKSA_
	.p2align	4, 0x90
_ZNSt6chronomiIxSt5ratioILx1ELx1000000000EExS2_EENSt11common_typeIJNS_8durationIT_T0_EENS4_IT1_T2_EEEE4typeERKS7_RKSA_: # @_ZNSt6chronomiIxSt5ratioILx1ELx1000000000EExS2_EENSt11common_typeIJNS_8durationIT_T0_EENS4_IT1_T2_EEEE4typeERKS7_RKSA_
.Lfunc_begin25:
	.loc	4 712 0 is_stmt 1               # C:/mingw64/include/c++/14.2.0/bits/chrono.h:712:0
.seh_proc _ZNSt6chronomiIxSt5ratioILx1ELx1000000000EExS2_EENSt11common_typeIJNS_8durationIT_T0_EENS4_IT1_T2_EEEE4typeERKS7_RKSA_
# %bb.0:
	subq	$88, %rsp
	.seh_stackalloc 88
	.seh_endprologue
	movq	%rcx, 72(%rsp)
	movq	%rdx, 64(%rsp)
.Ltmp205:
	.loc	4 716 19 prologue_end           # C:/mingw64/include/c++/14.2.0/bits/chrono.h:716:19
	movq	72(%rsp), %rax
	.loc	4 716 14 is_stmt 0              # C:/mingw64/include/c++/14.2.0/bits/chrono.h:716:14
	movq	(%rax), %rax
	movq	%rax, 48(%rsp)
	.loc	4 716 26                        # C:/mingw64/include/c++/14.2.0/bits/chrono.h:716:26
	leaq	48(%rsp), %rcx
	callq	_ZNKSt6chrono8durationIxSt5ratioILx1ELx1000000000EEE5countEv
	movq	%rax, 32(%rsp)                  # 8-byte Spill
	.loc	4 716 41                        # C:/mingw64/include/c++/14.2.0/bits/chrono.h:716:41
	movq	64(%rsp), %rax
	.loc	4 716 36                        # C:/mingw64/include/c++/14.2.0/bits/chrono.h:716:36
	movq	(%rax), %rax
	movq	%rax, 40(%rsp)
	.loc	4 716 48                        # C:/mingw64/include/c++/14.2.0/bits/chrono.h:716:48
	leaq	40(%rsp), %rcx
	callq	_ZNKSt6chrono8durationIxSt5ratioILx1ELx1000000000EEE5countEv
	movq	%rax, %rcx
	movq	32(%rsp), %rax                  # 8-byte Reload
	.loc	4 716 34                        # C:/mingw64/include/c++/14.2.0/bits/chrono.h:716:34
	subq	%rcx, %rax
	.loc	4 716 14                        # C:/mingw64/include/c++/14.2.0/bits/chrono.h:716:14
	movq	%rax, 56(%rsp)
	.loc	4 716 9                         # C:/mingw64/include/c++/14.2.0/bits/chrono.h:716:9
	leaq	80(%rsp), %rcx
	leaq	56(%rsp), %rdx
	callq	_ZNSt6chrono8durationIxSt5ratioILx1ELx1000000000EEEC2IxvEERKT_
	.loc	4 716 2                         # C:/mingw64/include/c++/14.2.0/bits/chrono.h:716:2
	movq	80(%rsp), %rax
	.loc	4 716 2 epilogue_begin          # C:/mingw64/include/c++/14.2.0/bits/chrono.h:716:2
	addq	$88, %rsp
	retq
.Ltmp206:
.Lfunc_end25:
	.seh_endproc
                                        # -- End function
	.def	_ZNKSt6chrono10time_pointINS_3_V212system_clockENS_8durationIxSt5ratioILx1ELx1000000000EEEEE16time_since_epochEv;
	.scl	2;
	.type	32;
	.endef
	.section	.text$_ZNKSt6chrono10time_pointINS_3_V212system_clockENS_8durationIxSt5ratioILx1ELx1000000000EEEEE16time_since_epochEv,"xr",discard,_ZNKSt6chrono10time_pointINS_3_V212system_clockENS_8durationIxSt5ratioILx1ELx1000000000EEEEE16time_since_epochEv
	.globl	_ZNKSt6chrono10time_pointINS_3_V212system_clockENS_8durationIxSt5ratioILx1ELx1000000000EEEEE16time_since_epochEv # -- Begin function _ZNKSt6chrono10time_pointINS_3_V212system_clockENS_8durationIxSt5ratioILx1ELx1000000000EEEEE16time_since_epochEv
	.p2align	4, 0x90
_ZNKSt6chrono10time_pointINS_3_V212system_clockENS_8durationIxSt5ratioILx1ELx1000000000EEEEE16time_since_epochEv: # @_ZNKSt6chrono10time_pointINS_3_V212system_clockENS_8durationIxSt5ratioILx1ELx1000000000EEEEE16time_since_epochEv
.Lfunc_begin26:
	.loc	4 950 0 is_stmt 1               # C:/mingw64/include/c++/14.2.0/bits/chrono.h:950:0
.seh_proc _ZNKSt6chrono10time_pointINS_3_V212system_clockENS_8durationIxSt5ratioILx1ELx1000000000EEEEE16time_since_epochEv
# %bb.0:
	subq	$16, %rsp
	.seh_stackalloc 16
	.seh_endprologue
	movq	%rcx, (%rsp)
	movq	(%rsp), %rax
.Ltmp207:
	.loc	4 950 11 prologue_end           # C:/mingw64/include/c++/14.2.0/bits/chrono.h:950:11
	movq	(%rax), %rax
	movq	%rax, 8(%rsp)
	.loc	4 950 4 is_stmt 0               # C:/mingw64/include/c++/14.2.0/bits/chrono.h:950:4
	movq	8(%rsp), %rax
	.loc	4 950 4 epilogue_begin          # C:/mingw64/include/c++/14.2.0/bits/chrono.h:950:4
	addq	$16, %rsp
	retq
.Ltmp208:
.Lfunc_end26:
	.seh_endproc
                                        # -- End function
	.def	_ZNSt6chrono8durationIxSt5ratioILx1ELx1000000000EEEC2IxvEERKT_;
	.scl	2;
	.type	32;
	.endef
	.section	.text$_ZNSt6chrono8durationIxSt5ratioILx1ELx1000000000EEEC2IxvEERKT_,"xr",discard,_ZNSt6chrono8durationIxSt5ratioILx1ELx1000000000EEEC2IxvEERKT_
	.globl	_ZNSt6chrono8durationIxSt5ratioILx1ELx1000000000EEEC2IxvEERKT_ # -- Begin function _ZNSt6chrono8durationIxSt5ratioILx1ELx1000000000EEEC2IxvEERKT_
	.p2align	4, 0x90
_ZNSt6chrono8durationIxSt5ratioILx1ELx1000000000EEEC2IxvEERKT_: # @_ZNSt6chrono8durationIxSt5ratioILx1ELx1000000000EEEC2IxvEERKT_
.Lfunc_begin27:
	.loc	4 574 0 is_stmt 1               # C:/mingw64/include/c++/14.2.0/bits/chrono.h:574:0
.seh_proc _ZNSt6chrono8durationIxSt5ratioILx1ELx1000000000EEEC2IxvEERKT_
# %bb.0:
	subq	$16, %rsp
	.seh_stackalloc 16
	.seh_endprologue
	movq	%rcx, 8(%rsp)
	movq	%rdx, (%rsp)
	movq	8(%rsp), %rax
.Ltmp209:
	.loc	4 574 27 prologue_end           # C:/mingw64/include/c++/14.2.0/bits/chrono.h:574:27
	movq	(%rsp), %rcx
	movq	(%rcx), %rcx
	.loc	4 574 6 is_stmt 0               # C:/mingw64/include/c++/14.2.0/bits/chrono.h:574:6
	movq	%rcx, (%rax)
	.loc	4 574 37                        # C:/mingw64/include/c++/14.2.0/bits/chrono.h:574:37
	.loc	4 574 37 epilogue_begin         # C:/mingw64/include/c++/14.2.0/bits/chrono.h:574:37
	addq	$16, %rsp
	retq
.Ltmp210:
.Lfunc_end27:
	.seh_endproc
                                        # -- End function
	.def	_ZNSt15__new_allocatorIcED2Ev;
	.scl	2;
	.type	32;
	.endef
	.section	.text$_ZNSt15__new_allocatorIcED2Ev,"xr",discard,_ZNSt15__new_allocatorIcED2Ev
	.globl	_ZNSt15__new_allocatorIcED2Ev   # -- Begin function _ZNSt15__new_allocatorIcED2Ev
	.p2align	4, 0x90
_ZNSt15__new_allocatorIcED2Ev:          # @_ZNSt15__new_allocatorIcED2Ev
.Lfunc_begin28:
	.loc	6 104 0 is_stmt 1               # C:/mingw64/include/c++/14.2.0/bits/new_allocator.h:104:0
.seh_proc _ZNSt15__new_allocatorIcED2Ev
# %bb.0:
	pushq	%rax
	.seh_stackalloc 8
	.seh_endprologue
	movq	%rcx, (%rsp)
.Ltmp211:
	.loc	6 104 50 prologue_end           # C:/mingw64/include/c++/14.2.0/bits/new_allocator.h:104:50
	.loc	6 104 50 epilogue_begin is_stmt 0 # C:/mingw64/include/c++/14.2.0/bits/new_allocator.h:104:50
	popq	%rax
	retq
.Ltmp212:
.Lfunc_end28:
	.seh_endproc
                                        # -- End function
	.def	_ZNSt7__cxx1112basic_stringIcSt11char_traitsIcESaIcEE12_Alloc_hiderC2EPcRKS3_;
	.scl	2;
	.type	32;
	.endef
	.section	.text$_ZNSt7__cxx1112basic_stringIcSt11char_traitsIcESaIcEE12_Alloc_hiderC2EPcRKS3_,"xr",discard,_ZNSt7__cxx1112basic_stringIcSt11char_traitsIcESaIcEE12_Alloc_hiderC2EPcRKS3_
	.globl	_ZNSt7__cxx1112basic_stringIcSt11char_traitsIcESaIcEE12_Alloc_hiderC2EPcRKS3_ # -- Begin function _ZNSt7__cxx1112basic_stringIcSt11char_traitsIcESaIcEE12_Alloc_hiderC2EPcRKS3_
	.p2align	4, 0x90
_ZNSt7__cxx1112basic_stringIcSt11char_traitsIcESaIcEE12_Alloc_hiderC2EPcRKS3_: # @_ZNSt7__cxx1112basic_stringIcSt11char_traitsIcESaIcEE12_Alloc_hiderC2EPcRKS3_
.Lfunc_begin29:
	.loc	14 194 0 is_stmt 1              # C:/mingw64/include/c++/14.2.0/bits/basic_string.h:194:0
.seh_proc _ZNSt7__cxx1112basic_stringIcSt11char_traitsIcESaIcEE12_Alloc_hiderC2EPcRKS3_
# %bb.0:
	subq	$56, %rsp
	.seh_stackalloc 56
	.seh_endprologue
	movq	%rcx, 16(%rsp)
	movq	%rdx, 8(%rsp)
	movq	%r8, (%rsp)
	movq	16(%rsp), %rax
.Ltmp213:
	.loc	14 194 19 prologue_end          # C:/mingw64/include/c++/14.2.0/bits/basic_string.h:194:19
	movq	(%rsp), %rcx
	movq	%rax, 32(%rsp)
	movq	%rcx, 24(%rsp)
	movq	32(%rsp), %rdx
.Ltmp214:
	.loc	9 166 31                        # C:/mingw64/include/c++/14.2.0/bits/allocator.h:166:31
	movq	24(%rsp), %rcx
	movq	%rdx, 48(%rsp)
	movq	%rcx, 40(%rsp)
.Ltmp215:
	.loc	14 194 30                       # C:/mingw64/include/c++/14.2.0/bits/basic_string.h:194:30
	movq	8(%rsp), %rcx
	.loc	14 194 25 is_stmt 0             # C:/mingw64/include/c++/14.2.0/bits/basic_string.h:194:25
	movq	%rcx, (%rax)
	.loc	14 194 39                       # C:/mingw64/include/c++/14.2.0/bits/basic_string.h:194:39
	.loc	14 194 39 epilogue_begin        # C:/mingw64/include/c++/14.2.0/bits/basic_string.h:194:39
	addq	$56, %rsp
	retq
.Ltmp216:
.Lfunc_end29:
	.seh_endproc
                                        # -- End function
	.def	_ZNSt7__cxx1112basic_stringIcSt11char_traitsIcESaIcEE12_Alloc_hiderD2Ev;
	.scl	2;
	.type	32;
	.endef
	.section	.text$_ZNSt7__cxx1112basic_stringIcSt11char_traitsIcESaIcEE12_Alloc_hiderD2Ev,"xr",discard,_ZNSt7__cxx1112basic_stringIcSt11char_traitsIcESaIcEE12_Alloc_hiderD2Ev
	.globl	_ZNSt7__cxx1112basic_stringIcSt11char_traitsIcESaIcEE12_Alloc_hiderD2Ev # -- Begin function _ZNSt7__cxx1112basic_stringIcSt11char_traitsIcESaIcEE12_Alloc_hiderD2Ev
	.p2align	4, 0x90
_ZNSt7__cxx1112basic_stringIcSt11char_traitsIcESaIcEE12_Alloc_hiderD2Ev: # @_ZNSt7__cxx1112basic_stringIcSt11char_traitsIcESaIcEE12_Alloc_hiderD2Ev
.Lfunc_begin30:
	.loc	14 186 0 is_stmt 1              # C:/mingw64/include/c++/14.2.0/bits/basic_string.h:186:0
.seh_proc _ZNSt7__cxx1112basic_stringIcSt11char_traitsIcESaIcEE12_Alloc_hiderD2Ev
# %bb.0:
	subq	$56, %rsp
	.seh_stackalloc 56
	.seh_endprologue
	movq	%rcx, 40(%rsp)
	movq	40(%rsp), %rax
	movq	%rax, 48(%rsp)
	movq	48(%rsp), %rcx
.Ltmp217:
	.loc	9 182 39 prologue_end           # C:/mingw64/include/c++/14.2.0/bits/allocator.h:182:39
	callq	_ZNSt15__new_allocatorIcED2Ev
.Ltmp218:
	.loc	14 186 14                       # C:/mingw64/include/c++/14.2.0/bits/basic_string.h:186:14
	nop
	.loc	14 186 14 epilogue_begin is_stmt 0 # C:/mingw64/include/c++/14.2.0/bits/basic_string.h:186:14
	addq	$56, %rsp
	retq
.Ltmp219:
.Lfunc_end30:
	.seh_endproc
                                        # -- End function
	.data
	.globl	PRINT_MAX_SIZE                  # @PRINT_MAX_SIZE
	.p2align	2, 0x0
PRINT_MAX_SIZE:
	.long	1000                            # 0x3e8

	.globl	TEST_STEP_SIZE                  # @TEST_STEP_SIZE
	.p2align	2, 0x0
TEST_STEP_SIZE:
	.long	50                              # 0x32

	.section	.rdata,"dr"
.L.str:                                 # @.str
	.asciz	"cls"

.L.str.1:                               # @.str.1
	.asciz	"Enter the size of array: "

.L.str.2:                               # @.str.2
	.asciz	"Enter the type of filling array\n"

.L.str.3:                               # @.str.3
	.asciz	"  1) Best case\n"

.L.str.4:                               # @.str.4
	.asciz	"  2) Middle case\n"

.L.str.5:                               # @.str.5
	.asciz	"  3) Bad case\n"

.L.str.6:                               # @.str.6
	.asciz	"\n> "

.L.str.7:                               # @.str.7
	.asciz	"Array: "

.L.str.8:                               # @.str.8
	.asciz	"Enter the sort for array:\n"

.L.str.9:                               # @.str.9
	.asciz	"  1) Quick Sort\n"

.L.str.10:                              # @.str.10
	.asciz	"  2) Shell Sort\n"

.L.str.11:                              # @.str.11
	.asciz	"  3) Pyramid Sort\n"

.L.str.12:                              # @.str.12
	.asciz	"  4) Shaker Sort\n> "

.L.str.13:                              # @.str.13
	.asciz	"Sorted array: "

.L.str.14:                              # @.str.14
	.asciz	"Sort time: "

.L.str.15:                              # @.str.15
	.asciz	"Do you want to do auto test? (1=yes 0=no) : "

.L.str.16:                              # @.str.16
	.asciz	"Enter the size of test: "

.L.str.17:                              # @.str.17
	.asciz	"Go to start? (1=yes 0=no)\n> "

.L.str.18:                              # @.str.18
	.asciz	"\n Array Time Auto Test\n"

.L.str.19:                              # @.str.19
	.asciz	" | "

.L.str.20:                              # @.str.20
	.asciz	"   "

.L.str.21:                              # @.str.21
	.asciz	"Best case      "

.L.str.22:                              # @.str.22
	.asciz	"      "

.L.str.23:                              # @.str.23
	.asciz	"Average case      "

.L.str.24:                              # @.str.24
	.asciz	"Worst case      "

.L.str.25:                              # @.str.25
	.asciz	"Count"

.L.str.26:                              # @.str.26
	.asciz	"Quick"

.L.str.27:                              # @.str.27
	.asciz	"Shell"

.L.str.28:                              # @.str.28
	.asciz	"Pyramid"

.L.str.29:                              # @.str.29
	.asciz	"Shaker"

	.section	.rdata$.refptr._ZSt3cin,"dr",discard,.refptr._ZSt3cin
	.p2align	3, 0x0
	.globl	.refptr._ZSt3cin
.refptr._ZSt3cin:
	.quad	_ZSt3cin
	.section	.rdata$.refptr._ZSt4cout,"dr",discard,.refptr._ZSt4cout
	.p2align	3, 0x0
	.globl	.refptr._ZSt4cout
.refptr._ZSt4cout:
	.quad	_ZSt4cout
	.file	20 "C:/mingw64/include/c++/14.2.0" "cstdint"
	.file	21 "C:/mingw64/x86_64-w64-mingw32/include" "time.h"
	.file	22 "C:/mingw64/include/c++/14.2.0" "ctime"
	.file	23 "C:/mingw64/x86_64-w64-mingw32/include/sys" "timeb.h"
	.file	24 "C:/mingw64/lib/clang/18/include" "__stddef_max_align_t.h"
	.file	25 "C:/mingw64/include/c++/14.2.0" "cstddef"
	.file	26 "C:/mingw64/x86_64-w64-mingw32/include" "stdio.h"
	.file	27 "C:/mingw64/include/c++/14.2.0" "cstdio"
	.file	28 "C:/mingw64/lib/clang/18/include" "__stddef_size_t.h"
	.file	29 "C:/mingw64/x86_64-w64-mingw32/include" "stdlib.h"
	.file	30 "C:/mingw64/include/c++/14.2.0/bits" "std_abs.h"
	.file	31 "C:/mingw64/include/c++/14.2.0" "cstdlib"
	.file	32 "C:/mingw64/x86_64-w64-mingw32/include" "wchar.h"
	.file	33 "C:/mingw64/include/c++/14.2.0" "cwchar"
	.file	34 "C:/mingw64/x86_64-w64-mingw32/include" "swprintf.inl"
	.file	35 "C:/mingw64/include/c++/14.2.0" "clocale"
	.file	36 "C:/mingw64/x86_64-w64-mingw32/include" "locale.h"
	.file	37 "C:/mingw64/x86_64-w64-mingw32/include" "ctype.h"
	.file	38 "C:/mingw64/include/c++/14.2.0" "cctype"
	.file	39 "C:/mingw64/include/c++/14.2.0/debug" "debug.h"
	.file	40 "C:/mingw64/include/c++/14.2.0/bits" "exception_ptr.h"
	.file	41 "C:/mingw64/x86_64-w64-mingw32/include" "wctype.h"
	.file	42 "C:/mingw64/include/c++/14.2.0" "cwctype"
	.file	43 "C:/mingw64/include/c++/14.2.0" "stdlib.h"
	.file	44 "C:/mingw64/include/c++/14.2.0" "type_traits"
	.file	45 "<stdin>"