	.file	"lab9.cpp"
	.text
.Ltext0:
	.cfi_sections	.debug_frame
	.file 0 "D:/Code/University/algoritms" "D:/Code/University/algoritms/lab9/lab9.cpp"
	.section	.text$_ZNSt6chrono8durationIxSt5ratioILx1ELx1000000000EEEC1IxvEERKT_,"x"
	.linkonce discard
	.align 2
	.globl	_ZNSt6chrono8durationIxSt5ratioILx1ELx1000000000EEEC1IxvEERKT_
	.def	_ZNSt6chrono8durationIxSt5ratioILx1ELx1000000000EEEC1IxvEERKT_;	.scl	2;	.type	32;	.endef
	.seh_proc	_ZNSt6chrono8durationIxSt5ratioILx1ELx1000000000EEEC1IxvEERKT_
_ZNSt6chrono8durationIxSt5ratioILx1ELx1000000000EEEC1IxvEERKT_:
.LFB325:
	.file 1 "C:/mingw64/include/c++/14.2.0/bits/chrono.h"
	.loc 1 573 23
	.cfi_startproc
	pushq	%rbp
	.seh_pushreg	%rbp
	.cfi_def_cfa_offset 16
	.cfi_offset 6, -16
	movq	%rsp, %rbp
	.seh_setframe	%rbp, 0
	.cfi_def_cfa_register 6
	.seh_endprologue
	movq	%rcx, 16(%rbp)
	movq	%rdx, 24(%rbp)
.LBB59:
	.loc 1 574 10
	movq	24(%rbp), %rax
	movq	(%rax), %rdx
	.loc 1 574 6
	movq	16(%rbp), %rax
	movq	%rdx, (%rax)
.LBE59:
	.loc 1 574 37
	nop
	popq	%rbp
	.cfi_restore 6
	.cfi_def_cfa 7, 8
	ret
	.cfi_endproc
.LFE325:
	.seh_endproc
	.section	.text$_ZNKSt6chrono8durationIxSt5ratioILx1ELx1000000000EEE5countEv,"x"
	.linkonce discard
	.align 2
	.globl	_ZNKSt6chrono8durationIxSt5ratioILx1ELx1000000000EEE5countEv
	.def	_ZNKSt6chrono8durationIxSt5ratioILx1ELx1000000000EEE5countEv;	.scl	2;	.type	32;	.endef
	.seh_proc	_ZNKSt6chrono8durationIxSt5ratioILx1ELx1000000000EEE5countEv
_ZNKSt6chrono8durationIxSt5ratioILx1ELx1000000000EEE5countEv:
.LFB327:
	.loc 1 589 2
	.cfi_startproc
	pushq	%rbp
	.seh_pushreg	%rbp
	.cfi_def_cfa_offset 16
	.cfi_offset 6, -16
	movq	%rsp, %rbp
	.seh_setframe	%rbp, 0
	.cfi_def_cfa_register 6
	.seh_endprologue
	movq	%rcx, 16(%rbp)
	.loc 1 590 11
	movq	16(%rbp), %rax
	movq	(%rax), %rax
	.loc 1 590 16
	popq	%rbp
	.cfi_restore 6
	.cfi_def_cfa 7, 8
	ret
	.cfi_endproc
.LFE327:
	.seh_endproc
	.section	.text$_ZSt4setwi,"x"
	.linkonce discard
	.globl	_ZSt4setwi
	.def	_ZSt4setwi;	.scl	2;	.type	32;	.endef
	.seh_proc	_ZSt4setwi
_ZSt4setwi:
.LFB2812:
	.file 2 "C:/mingw64/include/c++/14.2.0/iomanip"
	.loc 2 233 3
	.cfi_startproc
	pushq	%rbp
	.seh_pushreg	%rbp
	.cfi_def_cfa_offset 16
	.cfi_offset 6, -16
	movq	%rsp, %rbp
	.seh_setframe	%rbp, 0
	.cfi_def_cfa_register 6
	.seh_endprologue
	movl	%ecx, 16(%rbp)
	.loc 2 233 18
	movl	16(%rbp), %eax
	.loc 2 233 21
	popq	%rbp
	.cfi_restore 6
	.cfi_def_cfa 7, 8
	ret
	.cfi_endproc
.LFE2812:
	.seh_endproc
	.globl	PRINT_MAX_SIZE
	.data
	.align 4
PRINT_MAX_SIZE:
	.long	1000
	.globl	TEST_STEP_SIZE
	.align 4
TEST_STEP_SIZE:
	.long	50
	.section .rdata,"dr"
.LC0:
	.ascii "cls\0"
.LC1:
	.ascii "Enter the size of array: \0"
	.align 8
.LC2:
	.ascii "Enter the type of filling array\12\0"
.LC3:
	.ascii "  1) Best case\12\0"
.LC4:
	.ascii "  2) Middle case\12\0"
.LC5:
	.ascii "  3) Bad case\12\0"
.LC6:
	.ascii "\12> \0"
.LC7:
	.ascii "Array: \0"
.LC8:
	.ascii "Enter the sort for array:\12\0"
.LC9:
	.ascii "  1) Quick Sort\12\0"
.LC10:
	.ascii "  2) Shell Sort\12\0"
.LC11:
	.ascii "  3) Pyramid Sort\12\0"
.LC12:
	.ascii "  4) Shaker Sort\12> \0"
.LC13:
	.ascii "Sorted array: \0"
.LC14:
	.ascii "Sort time: \0"
	.align 8
.LC15:
	.ascii "Do you want to do auto test? (1=yes 0=no) : \0"
.LC16:
	.ascii "Enter the size of test: \0"
.LC17:
	.ascii "Go to start? (1=yes 0=no)\12> \0"
	.text
	.globl	main
	.def	main;	.scl	2;	.type	32;	.endef
	.seh_proc	main
main:
.LFB8647:
	.file 3 "D:/Code/University/algoritms/lab9/lab9.cpp"
	.loc 3 65 1
	.cfi_startproc
	pushq	%rbp
	.seh_pushreg	%rbp
	.cfi_def_cfa_offset 16
	.cfi_offset 6, -16
	pushq	%rbx
	.seh_pushreg	%rbx
	.cfi_def_cfa_offset 24
	.cfi_offset 3, -24
	subq	$88, %rsp
	.seh_stackalloc	88
	.cfi_def_cfa_offset 112
	leaq	80(%rsp), %rbp
	.seh_setframe	%rbp, 80
	.cfi_def_cfa 6, 32
	.seh_endprologue
	.loc 3 65 1
	call	__main
	.loc 3 66 9
	movl	$1, -4(%rbp)
	.loc 3 67 9
	movl	$1, -8(%rbp)
	.loc 3 68 9
	movl	$1, -12(%rbp)
	.loc 3 69 15
	movq	$0, -24(%rbp)
	.loc 3 71 5
	jmp	.L7
.L25:
.LBB60:
	.loc 3 73 20
	leaq	.LC0(%rip), %rax
	movq	%rax, %rcx
	call	system
	.loc 3 74 22
	leaq	.LC1(%rip), %rax
	movq	%rax, %rdx
	movq	.refptr._ZSt4cout(%rip), %rax
	movq	%rax, %rcx
	call	_ZStlsISt11char_traitsIcEERSt13basic_ostreamIcT_ES5_PKc
	.loc 3 75 21
	leaq	-12(%rbp), %rax
	movq	%rax, %rdx
	movq	.refptr._ZSt3cin(%rip), %rax
	movq	%rax, %rcx
	call	_ZNSirsERi
	.loc 3 76 14
	movl	$500, %ecx
	movq	__imp_Sleep(%rip), %rax
	call	*%rax
.LVL0:
	.loc 3 77 20
	leaq	.LC0(%rip), %rax
	movq	%rax, %rcx
	call	system
	.loc 3 79 30
	movl	-12(%rbp), %eax
	movslq	%eax, %rbx
	.loc 3 79 36
	movabsq	$2305843009213693950, %rax
	cmpq	%rbx, %rax
	jb	.L8
	.loc 3 79 36 is_stmt 0 discriminator 1
	leaq	0(,%rbx,4), %rax
	.loc 3 79 36 discriminator 3
	movq	%rax, %rcx
	call	_Znay
	movq	%rax, %rcx
	.loc 3 79 36 discriminator 4
	movq	%rcx, %rdx
	leaq	-1(%rbx), %rax
	.loc 3 79 36
	jmp	.L10
.L8:
	.loc 3 79 36 discriminator 2
	call	__cxa_throw_bad_array_new_length
.L11:
	.loc 3 79 36 discriminator 7
	movl	$0, (%rdx)
	subq	$1, %rax
	addq	$4, %rdx
.L10:
	.loc 3 79 36 discriminator 5
	testq	%rax, %rax
	jns	.L11
	.loc 3 79 36 discriminator 8
	movq	%rcx, -32(%rbp)
	.loc 3 81 20 is_stmt 1
	leaq	.LC0(%rip), %rax
	movq	%rax, %rcx
	call	system
	.loc 3 82 22
	leaq	.LC2(%rip), %rax
	movq	%rax, %rdx
	movq	.refptr._ZSt4cout(%rip), %rax
	movq	%rax, %rcx
	call	_ZStlsISt11char_traitsIcEERSt13basic_ostreamIcT_ES5_PKc
	.loc 3 83 22
	leaq	.LC3(%rip), %rax
	movq	%rax, %rdx
	movq	.refptr._ZSt4cout(%rip), %rax
	movq	%rax, %rcx
	call	_ZStlsISt11char_traitsIcEERSt13basic_ostreamIcT_ES5_PKc
	.loc 3 84 22
	leaq	.LC4(%rip), %rax
	movq	%rax, %rdx
	movq	.refptr._ZSt4cout(%rip), %rax
	movq	%rax, %rcx
	call	_ZStlsISt11char_traitsIcEERSt13basic_ostreamIcT_ES5_PKc
	.loc 3 85 22
	leaq	.LC5(%rip), %rax
	movq	%rax, %rdx
	movq	.refptr._ZSt4cout(%rip), %rax
	movq	%rax, %rcx
	call	_ZStlsISt11char_traitsIcEERSt13basic_ostreamIcT_ES5_PKc
	.loc 3 86 22
	leaq	.LC6(%rip), %rax
	movq	%rax, %rdx
	movq	.refptr._ZSt4cout(%rip), %rax
	movq	%rax, %rcx
	call	_ZStlsISt11char_traitsIcEERSt13basic_ostreamIcT_ES5_PKc
	.loc 3 87 21
	leaq	-8(%rbp), %rax
	movq	%rax, %rdx
	movq	.refptr._ZSt3cin(%rip), %rax
	movq	%rax, %rcx
	call	_ZNSirsERi
	.loc 3 89 9
	movl	-8(%rbp), %eax
	cmpl	$3, %eax
	je	.L12
	cmpl	$3, %eax
	jg	.L13
	cmpl	$1, %eax
	je	.L14
	cmpl	$2, %eax
	je	.L15
	jmp	.L13
.L14:
	.loc 3 92 30
	movl	-12(%rbp), %edx
	leaq	-32(%rbp), %rax
	movq	%rax, %rcx
	call	_Z17FillArrayBestCaseRPii
	.loc 3 93 13
	jmp	.L13
.L15:
	.loc 3 95 32
	movl	-12(%rbp), %edx
	leaq	-32(%rbp), %rax
	movq	%rax, %rcx
	call	_Z19FillArrayMiddleCaseRPii
	.loc 3 96 13
	jmp	.L13
.L12:
	.loc 3 98 29
	movl	-12(%rbp), %edx
	leaq	-32(%rbp), %rax
	movq	%rax, %rcx
	call	_Z16FillArrayBadCaseRPii
	.loc 3 99 13
	nop
.L13:
	.loc 3 102 18
	movl	-12(%rbp), %edx
	movl	PRINT_MAX_SIZE(%rip), %eax
	.loc 3 102 9
	cmpl	%eax, %edx
	jg	.L16
	.loc 3 104 26
	leaq	.LC7(%rip), %rax
	movq	%rax, %rdx
	movq	.refptr._ZSt4cout(%rip), %rax
	movq	%rax, %rcx
	call	_ZStlsISt11char_traitsIcEERSt13basic_ostreamIcT_ES5_PKc
	.loc 3 105 23
	movl	-12(%rbp), %edx
	movq	-32(%rbp), %rax
	movq	%rax, %rcx
	call	_Z10PrintArrayPii
.L16:
	.loc 3 108 14
	call	getch
	.loc 3 109 20
	leaq	.LC0(%rip), %rax
	movq	%rax, %rcx
	call	system
	.loc 3 111 22
	leaq	.LC8(%rip), %rax
	movq	%rax, %rdx
	movq	.refptr._ZSt4cout(%rip), %rax
	movq	%rax, %rcx
	call	_ZStlsISt11char_traitsIcEERSt13basic_ostreamIcT_ES5_PKc
	.loc 3 112 22
	leaq	.LC9(%rip), %rax
	movq	%rax, %rdx
	movq	.refptr._ZSt4cout(%rip), %rax
	movq	%rax, %rcx
	call	_ZStlsISt11char_traitsIcEERSt13basic_ostreamIcT_ES5_PKc
	.loc 3 113 22
	leaq	.LC10(%rip), %rax
	movq	%rax, %rdx
	movq	.refptr._ZSt4cout(%rip), %rax
	movq	%rax, %rcx
	call	_ZStlsISt11char_traitsIcEERSt13basic_ostreamIcT_ES5_PKc
	.loc 3 114 22
	leaq	.LC11(%rip), %rax
	movq	%rax, %rdx
	movq	.refptr._ZSt4cout(%rip), %rax
	movq	%rax, %rcx
	call	_ZStlsISt11char_traitsIcEERSt13basic_ostreamIcT_ES5_PKc
	.loc 3 115 22
	leaq	.LC12(%rip), %rax
	movq	%rax, %rdx
	movq	.refptr._ZSt4cout(%rip), %rax
	movq	%rax, %rcx
	call	_ZStlsISt11char_traitsIcEERSt13basic_ostreamIcT_ES5_PKc
	.loc 3 116 21
	leaq	-8(%rbp), %rax
	movq	%rax, %rdx
	movq	.refptr._ZSt3cin(%rip), %rax
	movq	%rax, %rcx
	call	_ZNSirsERi
	.loc 3 118 9
	movl	-8(%rbp), %eax
	cmpl	$4, %eax
	je	.L17
	cmpl	$4, %eax
	jg	.L18
	cmpl	$3, %eax
	je	.L19
	cmpl	$3, %eax
	jg	.L18
	cmpl	$1, %eax
	je	.L20
	cmpl	$2, %eax
	je	.L21
	jmp	.L18
.L20:
	.loc 3 121 30
	movl	-12(%rbp), %edx
	leaq	-24(%rbp), %rcx
	leaq	-32(%rbp), %rax
	movq	%rcx, %r9
	movl	%edx, %r8d
	movq	%rax, %rdx
	leaq	_Z9QuickSortRPii(%rip), %rax
	movq	%rax, %rcx
	call	_Z9ArraySortPFPiRS_iES0_iRx
	.loc 3 121 19 discriminator 1
	movq	%rax, -32(%rbp)
	.loc 3 122 13
	jmp	.L18
.L21:
	.loc 3 124 30
	movl	-12(%rbp), %edx
	leaq	-24(%rbp), %rcx
	leaq	-32(%rbp), %rax
	movq	%rcx, %r9
	movl	%edx, %r8d
	movq	%rax, %rdx
	leaq	_Z9ShellSortRPii(%rip), %rax
	movq	%rax, %rcx
	call	_Z9ArraySortPFPiRS_iES0_iRx
	.loc 3 124 19 discriminator 1
	movq	%rax, -32(%rbp)
	.loc 3 125 13
	jmp	.L18
.L19:
	.loc 3 127 30
	movl	-12(%rbp), %edx
	leaq	-24(%rbp), %rcx
	leaq	-32(%rbp), %rax
	movq	%rcx, %r9
	movl	%edx, %r8d
	movq	%rax, %rdx
	leaq	_Z11PyramidSortRPii(%rip), %rax
	movq	%rax, %rcx
	call	_Z9ArraySortPFPiRS_iES0_iRx
	.loc 3 127 19 discriminator 1
	movq	%rax, -32(%rbp)
	.loc 3 128 13
	jmp	.L18
.L17:
	.loc 3 130 30
	movl	-12(%rbp), %edx
	leaq	-24(%rbp), %rcx
	leaq	-32(%rbp), %rax
	movq	%rcx, %r9
	movl	%edx, %r8d
	movq	%rax, %rdx
	leaq	_Z10ShakerSortRPii(%rip), %rax
	movq	%rax, %rcx
	call	_Z9ArraySortPFPiRS_iES0_iRx
	.loc 3 130 19 discriminator 1
	movq	%rax, -32(%rbp)
	.loc 3 131 13
	nop
.L18:
	.loc 3 134 18
	movl	-12(%rbp), %edx
	movl	PRINT_MAX_SIZE(%rip), %eax
	.loc 3 134 9
	cmpl	%eax, %edx
	jg	.L22
	.loc 3 136 26
	leaq	.LC13(%rip), %rax
	movq	%rax, %rdx
	movq	.refptr._ZSt4cout(%rip), %rax
	movq	%rax, %rcx
	call	_ZStlsISt11char_traitsIcEERSt13basic_ostreamIcT_ES5_PKc
	.loc 3 137 23
	movl	-12(%rbp), %edx
	movq	-32(%rbp), %rax
	movq	%rax, %rcx
	call	_Z10PrintArrayPii
.L22:
	.loc 3 139 22
	leaq	.LC14(%rip), %rax
	movq	%rax, %rdx
	movq	.refptr._ZSt4cout(%rip), %rax
	movq	%rax, %rcx
	call	_ZStlsISt11char_traitsIcEERSt13basic_ostreamIcT_ES5_PKc
	movq	%rax, %rcx
	.loc 3 139 56 discriminator 1
	movq	-24(%rbp), %rax
	.loc 3 139 39 discriminator 1
	movq	%rax, %rdx
	call	_ZNSolsEx
	movq	%rax, %rcx
	.loc 3 139 56 discriminator 2
	movq	.refptr._ZSt4endlIcSt11char_traitsIcEERSt13basic_ostreamIT_T0_ES6_(%rip), %rax
	movq	%rax, %rdx
	call	_ZNSolsEPFRSoS_E
	.loc 3 141 14
	call	getch
	.loc 3 142 20
	leaq	.LC0(%rip), %rax
	movq	%rax, %rcx
	call	system
	.loc 3 144 9
	movq	-32(%rbp), %rax
	testq	%rax, %rax
	je	.L23
	.loc 3 144 18 discriminator 1
	movq	-32(%rbp), %rax
	movq	%rax, %rcx
	call	_ZdaPv
.L23:
	.loc 3 145 15
	movq	$0, -32(%rbp)
	.loc 3 147 13
	movl	$0, -36(%rbp)
	.loc 3 148 22
	leaq	.LC15(%rip), %rax
	movq	%rax, %rdx
	movq	.refptr._ZSt4cout(%rip), %rax
	movq	%rax, %rcx
	call	_ZStlsISt11char_traitsIcEERSt13basic_ostreamIcT_ES5_PKc
	.loc 3 149 21
	leaq	-36(%rbp), %rax
	movq	%rax, %rdx
	movq	.refptr._ZSt3cin(%rip), %rax
	movq	%rax, %rcx
	call	_ZNSirsERi
.LBB61:
	.loc 3 151 21
	movl	-36(%rbp), %eax
	.loc 3 151 9
	cmpl	$1, %eax
	jne	.L24
.LBB62:
	.loc 3 153 24
	leaq	.LC0(%rip), %rax
	movq	%rax, %rcx
	call	system
	.loc 3 155 26
	leaq	.LC16(%rip), %rax
	movq	%rax, %rdx
	movq	.refptr._ZSt4cout(%rip), %rax
	movq	%rax, %rcx
	call	_ZStlsISt11char_traitsIcEERSt13basic_ostreamIcT_ES5_PKc
	.loc 3 156 25
	leaq	-40(%rbp), %rax
	movq	%rax, %rdx
	movq	.refptr._ZSt3cin(%rip), %rax
	movq	%rax, %rcx
	call	_ZNSirsERi
	.loc 3 157 26
	movl	-40(%rbp), %eax
	movl	%eax, %ecx
	call	_Z13arrayAutoTesti
	.loc 3 158 18
	call	getch
.L24:
.LBE62:
.LBE61:
	.loc 3 161 20
	leaq	.LC0(%rip), %rax
	movq	%rax, %rcx
	call	system
	.loc 3 162 22
	leaq	.LC17(%rip), %rax
	movq	%rax, %rdx
	movq	.refptr._ZSt4cout(%rip), %rax
	movq	%rax, %rcx
	call	_ZStlsISt11char_traitsIcEERSt13basic_ostreamIcT_ES5_PKc
	.loc 3 163 21
	leaq	-4(%rbp), %rax
	movq	%rax, %rdx
	movq	.refptr._ZSt3cin(%rip), %rax
	movq	%rax, %rcx
	call	_ZNSirsERi
.L7:
.LBE60:
	.loc 3 71 20
	movl	-4(%rbp), %eax
	testl	%eax, %eax
	jne	.L25
	.loc 3 165 12
	movl	$0, %eax
	.loc 3 166 1
	addq	$88, %rsp
	popq	%rbx
	.cfi_restore 3
	popq	%rbp
	.cfi_restore 6
	.cfi_def_cfa 7, -72
	ret
	.cfi_endproc
.LFE8647:
	.seh_endproc
	.globl	_Z9ArraySortPFPiRS_iES0_iRx
	.def	_Z9ArraySortPFPiRS_iES0_iRx;	.scl	2;	.type	32;	.endef
	.seh_proc	_Z9ArraySortPFPiRS_iES0_iRx
_Z9ArraySortPFPiRS_iES0_iRx:
.LFB8648:
	.loc 3 169 1
	.cfi_startproc
	pushq	%rbp
	.seh_pushreg	%rbp
	.cfi_def_cfa_offset 16
	.cfi_offset 6, -16
	movq	%rsp, %rbp
	.seh_setframe	%rbp, 0
	.cfi_def_cfa_register 6
	subq	$80, %rsp
	.seh_stackalloc	80
	.seh_endprologue
	movq	%rcx, 16(%rbp)
	movq	%rdx, 24(%rbp)
	movl	%r8d, 32(%rbp)
	movq	%r9, 40(%rbp)
	.loc 3 170 57
	call	_ZNSt6chrono3_V212system_clock3nowEv
	movq	%rax, -32(%rbp)
	.loc 3 171 21
	movq	16(%rbp), %r8
	movl	32(%rbp), %edx
	movq	24(%rbp), %rax
	movq	%rax, %rcx
	call	*%r8
.LVL1:
	.loc 3 171 21 is_stmt 0 discriminator 1
	movq	%rax, -8(%rbp)
	.loc 3 172 55 is_stmt 1
	call	_ZNSt6chrono3_V212system_clock3nowEv
	movq	%rax, -40(%rbp)
	.loc 3 173 73
	leaq	-32(%rbp), %rdx
	leaq	-40(%rbp), %rax
	movq	%rax, %rcx
	call	_ZNSt6chronomiINS_3_V212system_clockENS_8durationIxSt5ratioILx1ELx1000000000EEEES6_EENSt11common_typeIJT0_T1_EE4typeERKNS_10time_pointIT_S8_EERKNSC_ISD_S9_EE
	movq	%rax, -16(%rbp)
	.loc 3 173 66 discriminator 2
	leaq	-16(%rbp), %rax
	movq	%rax, %rcx
	call	_ZNSt6chrono13duration_castINS_8durationIxSt5ratioILx1ELx1000000EEEExS2_ILx1ELx1000000000EEEENSt9enable_ifIXsrNS_13__is_durationIT_EE5valueES8_E4typeERKNS1_IT0_T1_EE
	movq	%rax, -24(%rbp)
	.loc 3 173 85 discriminator 4
	leaq	-24(%rbp), %rax
	movq	%rax, %rcx
	call	_ZNKSt6chrono8durationIxSt5ratioILx1ELx1000000EEE5countEv
	.loc 3 173 11 discriminator 1
	movq	40(%rbp), %rdx
	movq	%rax, (%rdx)
	.loc 3 174 12
	movq	-8(%rbp), %rax
	.loc 3 175 1
	addq	$80, %rsp
	popq	%rbp
	.cfi_restore 6
	.cfi_def_cfa 7, 8
	ret
	.cfi_endproc
.LFE8648:
	.seh_endproc
	.globl	_Z17FillArrayBestCaseRPii
	.def	_Z17FillArrayBestCaseRPii;	.scl	2;	.type	32;	.endef
	.seh_proc	_Z17FillArrayBestCaseRPii
_Z17FillArrayBestCaseRPii:
.LFB8649:
	.loc 3 178 1
	.cfi_startproc
	pushq	%rbp
	.seh_pushreg	%rbp
	.cfi_def_cfa_offset 16
	.cfi_offset 6, -16
	movq	%rsp, %rbp
	.seh_setframe	%rbp, 0
	.cfi_def_cfa_register 6
	subq	$16, %rsp
	.seh_stackalloc	16
	.seh_endprologue
	movq	%rcx, 16(%rbp)
	movl	%edx, 24(%rbp)
.LBB63:
	.loc 3 179 14
	movl	$0, -4(%rbp)
	.loc 3 179 5
	jmp	.L30
.L31:
	.loc 3 181 9
	movq	16(%rbp), %rax
	movq	(%rax), %rax
	.loc 3 181 16
	movl	-4(%rbp), %edx
	movslq	%edx, %rdx
	.loc 3 181 17
	salq	$2, %rdx
	addq	%rdx, %rax
	.loc 3 181 23
	movl	-4(%rbp), %edx
	addl	$1, %edx
	.loc 3 181 19
	movl	%edx, (%rax)
	.loc 3 179 5 discriminator 3
	addl	$1, -4(%rbp)
.L30:
	.loc 3 179 23 discriminator 1
	movl	-4(%rbp), %eax
	cmpl	24(%rbp), %eax
	jl	.L31
.LBE63:
	.loc 3 183 1
	nop
	nop
	addq	$16, %rsp
	popq	%rbp
	.cfi_restore 6
	.cfi_def_cfa 7, 8
	ret
	.cfi_endproc
.LFE8649:
	.seh_endproc
	.globl	_Z19FillArrayMiddleCaseRPii
	.def	_Z19FillArrayMiddleCaseRPii;	.scl	2;	.type	32;	.endef
	.seh_proc	_Z19FillArrayMiddleCaseRPii
_Z19FillArrayMiddleCaseRPii:
.LFB8650:
	.loc 3 186 1
	.cfi_startproc
	pushq	%rbp
	.seh_pushreg	%rbp
	.cfi_def_cfa_offset 16
	.cfi_offset 6, -16
	movq	%rsp, %rbp
	.seh_setframe	%rbp, 0
	.cfi_def_cfa_register 6
	subq	$48, %rsp
	.seh_stackalloc	48
	.seh_endprologue
	movq	%rcx, 16(%rbp)
	movl	%edx, 24(%rbp)
.LBB64:
	.loc 3 187 14
	movl	$0, -4(%rbp)
	.loc 3 187 5
	jmp	.L33
.L34:
	.loc 3 189 26
	call	rand
	.loc 3 189 29 discriminator 1
	cltd
	idivl	24(%rbp)
	movl	%edx, %ecx
	.loc 3 189 9 discriminator 1
	movq	16(%rbp), %rax
	movq	(%rax), %rax
	.loc 3 189 16 discriminator 1
	movl	-4(%rbp), %edx
	movslq	%edx, %rdx
	.loc 3 189 17 discriminator 1
	salq	$2, %rdx
	addq	%rdx, %rax
	.loc 3 189 38 discriminator 1
	leal	1(%rcx), %edx
	.loc 3 189 19 discriminator 1
	movl	%edx, (%rax)
	.loc 3 187 5 discriminator 3
	addl	$1, -4(%rbp)
.L33:
	.loc 3 187 23 discriminator 1
	movl	-4(%rbp), %eax
	cmpl	24(%rbp), %eax
	jl	.L34
.LBE64:
	.loc 3 191 1
	nop
	nop
	addq	$48, %rsp
	popq	%rbp
	.cfi_restore 6
	.cfi_def_cfa 7, 8
	ret
	.cfi_endproc
.LFE8650:
	.seh_endproc
	.globl	_Z16FillArrayBadCaseRPii
	.def	_Z16FillArrayBadCaseRPii;	.scl	2;	.type	32;	.endef
	.seh_proc	_Z16FillArrayBadCaseRPii
_Z16FillArrayBadCaseRPii:
.LFB8651:
	.loc 3 194 1
	.cfi_startproc
	pushq	%rbp
	.seh_pushreg	%rbp
	.cfi_def_cfa_offset 16
	.cfi_offset 6, -16
	movq	%rsp, %rbp
	.seh_setframe	%rbp, 0
	.cfi_def_cfa_register 6
	subq	$16, %rsp
	.seh_stackalloc	16
	.seh_endprologue
	movq	%rcx, 16(%rbp)
	movl	%edx, 24(%rbp)
.LBB65:
	.loc 3 195 14
	movl	$0, -4(%rbp)
	.loc 3 195 5
	jmp	.L36
.L37:
	.loc 3 197 9
	movq	16(%rbp), %rax
	movq	(%rax), %rax
	.loc 3 197 16
	movl	-4(%rbp), %edx
	movslq	%edx, %rdx
	.loc 3 197 17
	salq	$2, %rdx
	addq	%rax, %rdx
	.loc 3 197 27
	movl	24(%rbp), %eax
	subl	-4(%rbp), %eax
	.loc 3 197 19
	movl	%eax, (%rdx)
	.loc 3 195 5 discriminator 3
	addl	$1, -4(%rbp)
.L36:
	.loc 3 195 23 discriminator 1
	movl	-4(%rbp), %eax
	cmpl	24(%rbp), %eax
	jl	.L37
.LBE65:
	.loc 3 199 1
	nop
	nop
	addq	$16, %rsp
	popq	%rbp
	.cfi_restore 6
	.cfi_def_cfa 7, 8
	ret
	.cfi_endproc
.LFE8651:
	.seh_endproc
	.globl	_Z13PartQuickSortRPiiii
	.def	_Z13PartQuickSortRPiiii;	.scl	2;	.type	32;	.endef
	.seh_proc	_Z13PartQuickSortRPiiii
_Z13PartQuickSortRPiiii:
.LFB8652:
	.loc 3 202 1
	.cfi_startproc
	pushq	%rbp
	.seh_pushreg	%rbp
	.cfi_def_cfa_offset 16
	.cfi_offset 6, -16
	movq	%rsp, %rbp
	.seh_setframe	%rbp, 0
	.cfi_def_cfa_register 6
	subq	$48, %rsp
	.seh_stackalloc	48
	.seh_endprologue
	movq	%rcx, 16(%rbp)
	movl	%edx, 24(%rbp)
	movl	%r8d, 32(%rbp)
	movl	%r9d, 40(%rbp)
	.loc 3 204 5
	movl	32(%rbp), %eax
	cmpl	40(%rbp), %eax
	jl	.L39
	.loc 3 206 16
	movq	16(%rbp), %rax
	movq	(%rax), %rax
	jmp	.L40
.L39:
	.loc 3 209 30
	movq	16(%rbp), %rax
	movq	(%rax), %rax
	.loc 3 209 37
	movl	40(%rbp), %edx
	movslq	%edx, %rdx
	.loc 3 209 41
	salq	$2, %rdx
	addq	%rdx, %rax
	.loc 3 209 9
	movl	(%rax), %eax
	movl	%eax, -12(%rbp)
	.loc 3 210 9
	movl	32(%rbp), %eax
	movl	%eax, -4(%rbp)
.LBB66:
	.loc 3 213 14
	movl	32(%rbp), %eax
	movl	%eax, -8(%rbp)
	.loc 3 213 5
	jmp	.L41
.L43:
	.loc 3 215 13
	movq	16(%rbp), %rax
	movq	(%rax), %rax
	.loc 3 215 20
	movl	-8(%rbp), %edx
	movslq	%edx, %rdx
	.loc 3 215 21
	salq	$2, %rdx
	addq	%rdx, %rax
	movl	(%rax), %eax
	.loc 3 215 9
	cmpl	%eax, -12(%rbp)
	jl	.L42
	.loc 3 217 34
	movq	16(%rbp), %rax
	movq	(%rax), %rax
	.loc 3 217 41
	movl	-4(%rbp), %edx
	movslq	%edx, %rdx
	.loc 3 217 66
	salq	$2, %rdx
	addq	%rax, %rdx
	.loc 3 217 23
	movq	16(%rbp), %rax
	movq	(%rax), %rax
	.loc 3 217 30
	movl	-8(%rbp), %ecx
	movslq	%ecx, %rcx
	.loc 3 217 31
	salq	$2, %rcx
	addq	%rcx, %rax
	.loc 3 217 22
	movq	%rax, %rcx
	call	_ZSt4swapIiENSt9enable_ifIXsrSt6__and_IJSt6__not_ISt15__is_tuple_likeIT_EESt21is_move_constructibleIS4_ESt18is_move_assignableIS4_EEE5valueEvE4typeERS4_SE_
	.loc 3 218 38
	addl	$1, -4(%rbp)
.L42:
	.loc 3 213 5 discriminator 2
	addl	$1, -8(%rbp)
.L41:
	.loc 3 213 28 discriminator 1
	movl	-8(%rbp), %eax
	cmpl	40(%rbp), %eax
	jl	.L43
.LBE66:
	.loc 3 221 50
	movq	16(%rbp), %rax
	movq	(%rax), %rax
	.loc 3 221 57
	movl	40(%rbp), %edx
	movslq	%edx, %rdx
	.loc 3 221 61
	salq	$2, %rdx
	addq	%rax, %rdx
	.loc 3 221 15
	movq	16(%rbp), %rax
	movq	(%rax), %rax
	.loc 3 221 22
	movl	-4(%rbp), %ecx
	movslq	%ecx, %rcx
	.loc 3 221 47
	salq	$2, %rcx
	addq	%rcx, %rax
	.loc 3 221 14
	movq	%rax, %rcx
	call	_ZSt4swapIiENSt9enable_ifIXsrSt6__and_IJSt6__not_ISt15__is_tuple_likeIT_EESt21is_move_constructibleIS4_ESt18is_move_assignableIS4_EEE5valueEvE4typeERS4_SE_
	.loc 3 224 18
	movl	-4(%rbp), %eax
	leal	-1(%rax), %r8d
	movl	32(%rbp), %ecx
	movl	24(%rbp), %edx
	movq	16(%rbp), %rax
	movl	%r8d, %r9d
	movl	%ecx, %r8d
	movq	%rax, %rcx
	call	_Z13PartQuickSortRPiiii
	.loc 3 225 18
	movl	-4(%rbp), %eax
	leal	1(%rax), %r8d
	movl	40(%rbp), %ecx
	movl	24(%rbp), %edx
	movq	16(%rbp), %rax
	movl	%ecx, %r9d
	movq	%rax, %rcx
	call	_Z13PartQuickSortRPiiii
	.loc 3 227 12
	movq	16(%rbp), %rax
	movq	(%rax), %rax
.L40:
	.loc 3 228 1
	addq	$48, %rsp
	popq	%rbp
	.cfi_restore 6
	.cfi_def_cfa 7, 8
	ret
	.cfi_endproc
.LFE8652:
	.seh_endproc
	.globl	_Z9QuickSortRPii
	.def	_Z9QuickSortRPii;	.scl	2;	.type	32;	.endef
	.seh_proc	_Z9QuickSortRPii
_Z9QuickSortRPii:
.LFB8654:
	.loc 3 231 1
	.cfi_startproc
	pushq	%rbp
	.seh_pushreg	%rbp
	.cfi_def_cfa_offset 16
	.cfi_offset 6, -16
	movq	%rsp, %rbp
	.seh_setframe	%rbp, 0
	.cfi_def_cfa_register 6
	subq	$32, %rsp
	.seh_stackalloc	32
	.seh_endprologue
	movq	%rcx, 16(%rbp)
	movl	%edx, 24(%rbp)
	.loc 3 232 27
	movl	24(%rbp), %eax
	leal	-1(%rax), %ecx
	movl	24(%rbp), %edx
	movq	16(%rbp), %rax
	movl	%ecx, %r9d
	movl	$0, %r8d
	movq	%rax, %rcx
	call	_Z13PartQuickSortRPiiii
	.loc 3 232 12 discriminator 1
	movq	16(%rbp), %rdx
	movq	%rax, (%rdx)
	.loc 3 233 12
	movq	16(%rbp), %rax
	movq	(%rax), %rax
	.loc 3 234 1
	addq	$32, %rsp
	popq	%rbp
	.cfi_restore 6
	.cfi_def_cfa 7, 8
	ret
	.cfi_endproc
.LFE8654:
	.seh_endproc
	.globl	_Z13InsertionSortRPiiii
	.def	_Z13InsertionSortRPiiii;	.scl	2;	.type	32;	.endef
	.seh_proc	_Z13InsertionSortRPiiii
_Z13InsertionSortRPiiii:
.LFB8655:
	.loc 3 237 1
	.cfi_startproc
	pushq	%rbp
	.seh_pushreg	%rbp
	.cfi_def_cfa_offset 16
	.cfi_offset 6, -16
	movq	%rsp, %rbp
	.seh_setframe	%rbp, 0
	.cfi_def_cfa_register 6
	subq	$16, %rsp
	.seh_stackalloc	16
	.seh_endprologue
	movq	%rcx, 16(%rbp)
	movl	%edx, 24(%rbp)
	movl	%r8d, 32(%rbp)
	movl	%r9d, 40(%rbp)
.LBB67:
	.loc 3 238 14
	movl	32(%rbp), %eax
	movl	%eax, -4(%rbp)
	.loc 3 238 5
	jmp	.L47
.L51:
.LBB68:
	.loc 3 241 22
	movq	16(%rbp), %rax
	movq	(%rax), %rax
	.loc 3 241 29
	movl	-4(%rbp), %edx
	movslq	%edx, %rdx
	.loc 3 241 30
	salq	$2, %rdx
	addq	%rdx, %rax
	.loc 3 241 13
	movl	(%rax), %eax
	movl	%eax, -12(%rbp)
	.loc 3 244 16
	movl	-4(%rbp), %eax
	subl	$1, %eax
	movl	%eax, -8(%rbp)
	.loc 3 244 9
	jmp	.L48
.L50:
	.loc 3 246 29
	movq	16(%rbp), %rax
	movq	(%rax), %rax
	.loc 3 246 36
	movl	-8(%rbp), %edx
	movslq	%edx, %rdx
	.loc 3 246 37
	salq	$2, %rdx
	leaq	(%rax,%rdx), %rcx
	.loc 3 246 13
	movq	16(%rbp), %rax
	movq	(%rax), %rax
	.loc 3 246 25
	movl	-8(%rbp), %edx
	movslq	%edx, %rdx
	addq	$1, %rdx
	salq	$2, %rdx
	addq	%rax, %rdx
	.loc 3 246 37
	movl	(%rcx), %eax
	.loc 3 246 27
	movl	%eax, (%rdx)
	.loc 3 244 9 discriminator 4
	subl	$1, -8(%rbp)
.L48:
	.loc 3 244 32 discriminator 1
	cmpl	$0, -8(%rbp)
	js	.L49
	.loc 3 244 35 discriminator 3
	movq	16(%rbp), %rax
	movq	(%rax), %rax
	.loc 3 244 42 discriminator 3
	movl	-8(%rbp), %edx
	movslq	%edx, %rdx
	.loc 3 244 43 discriminator 3
	salq	$2, %rdx
	addq	%rdx, %rax
	movl	(%rax), %eax
	.loc 3 244 32 discriminator 3
	cmpl	%eax, -12(%rbp)
	jl	.L50
.L49:
	.loc 3 248 9
	movq	16(%rbp), %rax
	movq	(%rax), %rax
	.loc 3 248 21
	movl	-8(%rbp), %edx
	movslq	%edx, %rdx
	addq	$1, %rdx
	salq	$2, %rdx
	addq	%rax, %rdx
	.loc 3 248 23
	movl	-12(%rbp), %eax
	movl	%eax, (%rdx)
.LBE68:
	.loc 3 238 5 discriminator 2
	addl	$1, -4(%rbp)
.L47:
	.loc 3 238 28 discriminator 1
	movl	-4(%rbp), %eax
	cmpl	40(%rbp), %eax
	jl	.L51
.LBE67:
	.loc 3 250 12
	movq	16(%rbp), %rax
	movq	(%rax), %rax
	.loc 3 251 1
	addq	$16, %rsp
	popq	%rbp
	.cfi_restore 6
	.cfi_def_cfa 7, 8
	ret
	.cfi_endproc
.LFE8655:
	.seh_endproc
	.globl	_Z13PartShellSortRPiiiii
	.def	_Z13PartShellSortRPiiiii;	.scl	2;	.type	32;	.endef
	.seh_proc	_Z13PartShellSortRPiiiii
_Z13PartShellSortRPiiiii:
.LFB8656:
	.loc 3 254 1
	.cfi_startproc
	pushq	%rbp
	.seh_pushreg	%rbp
	.cfi_def_cfa_offset 16
	.cfi_offset 6, -16
	movq	%rsp, %rbp
	.seh_setframe	%rbp, 0
	.cfi_def_cfa_register 6
	subq	$48, %rsp
	.seh_stackalloc	48
	.seh_endprologue
	movq	%rcx, 16(%rbp)
	movl	%edx, 24(%rbp)
	movl	%r8d, 32(%rbp)
	movl	%r9d, 40(%rbp)
	.loc 3 255 14
	movl	48(%rbp), %eax
	movl	%eax, %edx
	shrl	$31, %edx
	addl	%edx, %eax
	sarl	%eax
	movl	%eax, 48(%rbp)
	.loc 3 256 5
	cmpl	$0, 48(%rbp)
	jg	.L54
	.loc 3 258 16
	movq	16(%rbp), %rax
	movq	(%rax), %rax
	jmp	.L55
.L54:
	.loc 3 262 27
	movl	48(%rbp), %r8d
	movl	32(%rbp), %ecx
	movl	24(%rbp), %edx
	movq	16(%rbp), %rax
	movl	%r8d, %r9d
	movl	%ecx, %r8d
	movq	%rax, %rcx
	call	_Z13InsertionSortRPiiii
	.loc 3 262 12 discriminator 1
	movq	16(%rbp), %rdx
	movq	%rax, (%rdx)
	.loc 3 263 27
	movl	40(%rbp), %r8d
	movl	48(%rbp), %ecx
	movl	24(%rbp), %edx
	movq	16(%rbp), %rax
	movl	%r8d, %r9d
	movl	%ecx, %r8d
	movq	%rax, %rcx
	call	_Z13InsertionSortRPiiii
	.loc 3 263 12 discriminator 1
	movq	16(%rbp), %rdx
	movq	%rax, (%rdx)
	.loc 3 266 27
	movl	48(%rbp), %r9d
	movl	32(%rbp), %r8d
	movl	24(%rbp), %edx
	movq	16(%rbp), %rax
	movl	48(%rbp), %ecx
	movl	%ecx, 32(%rsp)
	movq	%rax, %rcx
	call	_Z13PartShellSortRPiiiii
	.loc 3 266 12 discriminator 1
	movq	16(%rbp), %rdx
	movq	%rax, (%rdx)
	.loc 3 267 27
	movl	40(%rbp), %r9d
	movl	48(%rbp), %r8d
	movl	24(%rbp), %edx
	movq	16(%rbp), %rax
	movl	48(%rbp), %ecx
	movl	%ecx, 32(%rsp)
	movq	%rax, %rcx
	call	_Z13PartShellSortRPiiiii
	.loc 3 267 12 discriminator 1
	movq	16(%rbp), %rdx
	movq	%rax, (%rdx)
	.loc 3 269 12
	movq	16(%rbp), %rax
	movq	(%rax), %rax
.L55:
	.loc 3 270 1
	addq	$48, %rsp
	popq	%rbp
	.cfi_restore 6
	.cfi_def_cfa 7, 8
	ret
	.cfi_endproc
.LFE8656:
	.seh_endproc
	.globl	_Z9ShellSortRPii
	.def	_Z9ShellSortRPii;	.scl	2;	.type	32;	.endef
	.seh_proc	_Z9ShellSortRPii
_Z9ShellSortRPii:
.LFB8657:
	.loc 3 273 1
	.cfi_startproc
	pushq	%rbp
	.seh_pushreg	%rbp
	.cfi_def_cfa_offset 16
	.cfi_offset 6, -16
	movq	%rsp, %rbp
	.seh_setframe	%rbp, 0
	.cfi_def_cfa_register 6
	subq	$48, %rsp
	.seh_stackalloc	48
	.seh_endprologue
	movq	%rcx, 16(%rbp)
	movl	%edx, 24(%rbp)
	.loc 3 277 27
	movl	24(%rbp), %r8d
	movl	24(%rbp), %edx
	movq	16(%rbp), %rax
	movl	24(%rbp), %ecx
	movl	%ecx, 32(%rsp)
	movl	%r8d, %r9d
	movl	$0, %r8d
	movq	%rax, %rcx
	call	_Z13PartShellSortRPiiiii
	.loc 3 277 12 discriminator 1
	movq	16(%rbp), %rdx
	movq	%rax, (%rdx)
	.loc 3 278 12
	movq	16(%rbp), %rax
	movq	(%rax), %rax
	.loc 3 279 1
	addq	$48, %rsp
	popq	%rbp
	.cfi_restore 6
	.cfi_def_cfa 7, 8
	ret
	.cfi_endproc
.LFE8657:
	.seh_endproc
	.globl	_Z11ArrayToHeapRPiii
	.def	_Z11ArrayToHeapRPiii;	.scl	2;	.type	32;	.endef
	.seh_proc	_Z11ArrayToHeapRPiii
_Z11ArrayToHeapRPiii:
.LFB8658:
	.loc 3 282 1
	.cfi_startproc
	pushq	%rbp
	.seh_pushreg	%rbp
	.cfi_def_cfa_offset 16
	.cfi_offset 6, -16
	movq	%rsp, %rbp
	.seh_setframe	%rbp, 0
	.cfi_def_cfa_register 6
	subq	$48, %rsp
	.seh_stackalloc	48
	.seh_endprologue
	movq	%rcx, 16(%rbp)
	movl	%edx, 24(%rbp)
	movl	%r8d, 32(%rbp)
	.loc 3 284 9
	movl	32(%rbp), %eax
	movl	%eax, -4(%rbp)
	.loc 3 285 23
	movl	32(%rbp), %eax
	addl	%eax, %eax
	.loc 3 285 9
	addl	$1, %eax
	movl	%eax, -8(%rbp)
	.loc 3 286 33
	movl	32(%rbp), %eax
	addl	$1, %eax
	.loc 3 286 9
	addl	%eax, %eax
	movl	%eax, -12(%rbp)
	.loc 3 289 5
	movl	-8(%rbp), %eax
	cmpl	24(%rbp), %eax
	jge	.L59
	.loc 3 289 30 discriminator 1
	movq	16(%rbp), %rax
	movq	(%rax), %rax
	.loc 3 289 37 discriminator 1
	movl	-8(%rbp), %edx
	movslq	%edx, %rdx
	.loc 3 289 46 discriminator 1
	salq	$2, %rdx
	addq	%rdx, %rax
	movl	(%rax), %edx
	.loc 3 289 50 discriminator 1
	movq	16(%rbp), %rax
	movq	(%rax), %rax
	.loc 3 289 57 discriminator 1
	movl	-4(%rbp), %ecx
	movslq	%ecx, %rcx
	.loc 3 289 66 discriminator 1
	salq	$2, %rcx
	addq	%rcx, %rax
	movl	(%rax), %eax
	.loc 3 289 27 discriminator 1
	cmpl	%eax, %edx
	jle	.L59
	.loc 3 291 19
	movl	-8(%rbp), %eax
	movl	%eax, -4(%rbp)
.L59:
	.loc 3 295 5
	movl	-12(%rbp), %eax
	cmpl	24(%rbp), %eax
	jge	.L60
	.loc 3 295 31 discriminator 1
	movq	16(%rbp), %rax
	movq	(%rax), %rax
	.loc 3 295 38 discriminator 1
	movl	-12(%rbp), %edx
	movslq	%edx, %rdx
	.loc 3 295 48 discriminator 1
	salq	$2, %rdx
	addq	%rdx, %rax
	movl	(%rax), %edx
	.loc 3 295 52 discriminator 1
	movq	16(%rbp), %rax
	movq	(%rax), %rax
	.loc 3 295 59 discriminator 1
	movl	-4(%rbp), %ecx
	movslq	%ecx, %rcx
	.loc 3 295 68 discriminator 1
	salq	$2, %rcx
	addq	%rcx, %rax
	movl	(%rax), %eax
	.loc 3 295 28 discriminator 1
	cmpl	%eax, %edx
	jle	.L60
	.loc 3 297 19
	movl	-12(%rbp), %eax
	movl	%eax, -4(%rbp)
.L60:
	.loc 3 301 5
	movl	-4(%rbp), %eax
	cmpl	32(%rbp), %eax
	je	.L61
	.loc 3 303 16
	movq	16(%rbp), %rax
	movq	(%rax), %rax
	.loc 3 303 23
	movl	32(%rbp), %edx
	movslq	%edx, %rdx
	.loc 3 303 29
	salq	$2, %rdx
	addq	%rdx, %rax
	.loc 3 303 14
	movl	(%rax), %eax
	movl	%eax, -16(%rbp)
	.loc 3 304 26
	movq	16(%rbp), %rax
	movq	(%rax), %rax
	.loc 3 304 33
	movl	-4(%rbp), %edx
	movslq	%edx, %rdx
	.loc 3 304 42
	salq	$2, %rdx
	leaq	(%rax,%rdx), %rcx
	.loc 3 304 9
	movq	16(%rbp), %rax
	movq	(%rax), %rax
	.loc 3 304 16
	movl	32(%rbp), %edx
	movslq	%edx, %rdx
	.loc 3 304 22
	salq	$2, %rdx
	addq	%rax, %rdx
	.loc 3 304 42
	movl	(%rcx), %eax
	.loc 3 304 24
	movl	%eax, (%rdx)
	.loc 3 305 9
	movq	16(%rbp), %rax
	movq	(%rax), %rax
	.loc 3 305 16
	movl	-4(%rbp), %edx
	movslq	%edx, %rdx
	.loc 3 305 25
	salq	$2, %rdx
	addq	%rax, %rdx
	.loc 3 305 27
	movl	-16(%rbp), %eax
	movl	%eax, (%rdx)
	.loc 3 308 29
	movl	-4(%rbp), %ecx
	movl	24(%rbp), %edx
	movq	16(%rbp), %rax
	movl	%ecx, %r8d
	movq	%rax, %rcx
	call	_Z11ArrayToHeapRPiii
	.loc 3 308 16 discriminator 1
	movq	16(%rbp), %rdx
	movq	%rax, (%rdx)
.L61:
	.loc 3 311 12
	movq	16(%rbp), %rax
	movq	(%rax), %rax
	.loc 3 312 1
	addq	$48, %rsp
	popq	%rbp
	.cfi_restore 6
	.cfi_def_cfa 7, 8
	ret
	.cfi_endproc
.LFE8658:
	.seh_endproc
	.globl	_Z11PyramidSortRPii
	.def	_Z11PyramidSortRPii;	.scl	2;	.type	32;	.endef
	.seh_proc	_Z11PyramidSortRPii
_Z11PyramidSortRPii:
.LFB8659:
	.loc 3 315 1
	.cfi_startproc
	pushq	%rbp
	.seh_pushreg	%rbp
	.cfi_def_cfa_offset 16
	.cfi_offset 6, -16
	movq	%rsp, %rbp
	.seh_setframe	%rbp, 0
	.cfi_def_cfa_register 6
	subq	$48, %rsp
	.seh_stackalloc	48
	.seh_endprologue
	movq	%rcx, 16(%rbp)
	movl	%edx, 24(%rbp)
.LBB69:
	.loc 3 317 24
	movl	24(%rbp), %eax
	movl	%eax, %edx
	shrl	$31, %edx
	addl	%edx, %eax
	sarl	%eax
	.loc 3 317 14
	subl	$1, %eax
	movl	%eax, -4(%rbp)
	.loc 3 317 5
	jmp	.L64
.L65:
	.loc 3 319 20
	movl	-4(%rbp), %ecx
	movl	24(%rbp), %edx
	movq	16(%rbp), %rax
	movl	%ecx, %r8d
	movq	%rax, %rcx
	call	_Z11ArrayToHeapRPiii
	.loc 3 317 5 discriminator 3
	subl	$1, -4(%rbp)
.L64:
	.loc 3 317 35 discriminator 1
	cmpl	$0, -4(%rbp)
	jns	.L65
.LBE69:
.LBB70:
	.loc 3 325 14
	movl	24(%rbp), %eax
	subl	$1, %eax
	movl	%eax, -8(%rbp)
	.loc 3 325 5
	jmp	.L66
.L67:
	.loc 3 327 24
	movq	16(%rbp), %rax
	movq	(%rax), %rax
	.loc 3 327 14
	movl	(%rax), %eax
	movl	%eax, -12(%rbp)
	.loc 3 328 21
	movq	16(%rbp), %rax
	movq	(%rax), %rax
	.loc 3 328 28
	movl	-8(%rbp), %edx
	movslq	%edx, %rdx
	.loc 3 328 29
	salq	$2, %rdx
	addq	%rax, %rdx
	.loc 3 328 17
	movq	16(%rbp), %rax
	movq	(%rax), %rax
	.loc 3 328 29
	movl	(%rdx), %edx
	.loc 3 328 19
	movl	%edx, (%rax)
	.loc 3 329 9
	movq	16(%rbp), %rax
	movq	(%rax), %rax
	.loc 3 329 16
	movl	-8(%rbp), %edx
	movslq	%edx, %rdx
	.loc 3 329 17
	salq	$2, %rdx
	addq	%rax, %rdx
	.loc 3 329 19
	movl	-12(%rbp), %eax
	movl	%eax, (%rdx)
	.loc 3 332 20
	movl	-8(%rbp), %edx
	movq	16(%rbp), %rax
	movl	$0, %r8d
	movq	%rax, %rcx
	call	_Z11ArrayToHeapRPiii
	.loc 3 325 5 discriminator 3
	subl	$1, -8(%rbp)
.L66:
	.loc 3 325 31 discriminator 1
	cmpl	$0, -8(%rbp)
	jns	.L67
.LBE70:
	.loc 3 335 12
	movq	16(%rbp), %rax
	movq	(%rax), %rax
	.loc 3 336 1
	addq	$48, %rsp
	popq	%rbp
	.cfi_restore 6
	.cfi_def_cfa 7, 8
	ret
	.cfi_endproc
.LFE8659:
	.seh_endproc
	.globl	_Z10ShakerSortRPii
	.def	_Z10ShakerSortRPii;	.scl	2;	.type	32;	.endef
	.seh_proc	_Z10ShakerSortRPii
_Z10ShakerSortRPii:
.LFB8660:
	.loc 3 339 1
	.cfi_startproc
	pushq	%rbp
	.seh_pushreg	%rbp
	.cfi_def_cfa_offset 16
	.cfi_offset 6, -16
	movq	%rsp, %rbp
	.seh_setframe	%rbp, 0
	.cfi_def_cfa_register 6
	subq	$32, %rsp
	.seh_stackalloc	32
	.seh_endprologue
	movq	%rcx, 16(%rbp)
	movl	%edx, 24(%rbp)
	.loc 3 340 9
	movl	$1, -4(%rbp)
	.loc 3 340 23
	movl	24(%rbp), %eax
	subl	$1, %eax
	movl	%eax, -8(%rbp)
	.loc 3 341 10
	movb	$1, -9(%rbp)
.L76:
.LBB71:
	.loc 3 345 16
	movb	$1, -9(%rbp)
.LBB72:
	.loc 3 348 18
	movl	-4(%rbp), %eax
	movl	%eax, -16(%rbp)
	.loc 3 348 9
	jmp	.L70
.L72:
	.loc 3 350 17
	movq	16(%rbp), %rax
	movq	(%rax), %rax
	.loc 3 350 24
	movl	-16(%rbp), %edx
	movslq	%edx, %rdx
	.loc 3 350 29
	salq	$2, %rdx
	subq	$4, %rdx
	addq	%rdx, %rax
	movl	(%rax), %edx
	.loc 3 350 33
	movq	16(%rbp), %rax
	movq	(%rax), %rax
	.loc 3 350 40
	movl	-16(%rbp), %ecx
	movslq	%ecx, %rcx
	.loc 3 350 41
	salq	$2, %rcx
	addq	%rcx, %rax
	movl	(%rax), %eax
	.loc 3 350 13
	cmpl	%eax, %edx
	jle	.L71
	.loc 3 352 24
	movq	16(%rbp), %rax
	movq	(%rax), %rax
	.loc 3 352 31
	movl	-16(%rbp), %edx
	movslq	%edx, %rdx
	.loc 3 352 36
	salq	$2, %rdx
	subq	$4, %rdx
	addq	%rdx, %rax
	.loc 3 352 22
	movl	(%rax), %eax
	movl	%eax, -24(%rbp)
	.loc 3 353 33
	movq	16(%rbp), %rax
	movq	(%rax), %rax
	.loc 3 353 40
	movl	-16(%rbp), %edx
	movslq	%edx, %rdx
	.loc 3 353 41
	salq	$2, %rdx
	leaq	(%rax,%rdx), %rcx
	.loc 3 353 17
	movq	16(%rbp), %rax
	movq	(%rax), %rax
	.loc 3 353 24
	movl	-16(%rbp), %edx
	movslq	%edx, %rdx
	.loc 3 353 29
	salq	$2, %rdx
	subq	$4, %rdx
	addq	%rax, %rdx
	.loc 3 353 41
	movl	(%rcx), %eax
	.loc 3 353 31
	movl	%eax, (%rdx)
	.loc 3 354 17
	movq	16(%rbp), %rax
	movq	(%rax), %rax
	.loc 3 354 24
	movl	-16(%rbp), %edx
	movslq	%edx, %rdx
	.loc 3 354 25
	salq	$2, %rdx
	addq	%rax, %rdx
	.loc 3 354 27
	movl	-24(%rbp), %eax
	movl	%eax, (%rdx)
	.loc 3 355 24
	movb	$0, -9(%rbp)
.L71:
	.loc 3 348 9 discriminator 2
	addl	$1, -16(%rbp)
.L70:
	.loc 3 348 34 discriminator 1
	movl	-16(%rbp), %eax
	cmpl	-8(%rbp), %eax
	jle	.L72
.LBE72:
	.loc 3 358 18
	subl	$1, -8(%rbp)
.LBB73:
	.loc 3 361 18
	movl	-8(%rbp), %eax
	movl	%eax, -20(%rbp)
	.loc 3 361 9
	jmp	.L73
.L75:
	.loc 3 363 17
	movq	16(%rbp), %rax
	movq	(%rax), %rax
	.loc 3 363 24
	movl	-20(%rbp), %edx
	movslq	%edx, %rdx
	.loc 3 363 25
	salq	$2, %rdx
	addq	%rdx, %rax
	movl	(%rax), %edx
	.loc 3 363 29
	movq	16(%rbp), %rax
	movq	(%rax), %rax
	.loc 3 363 36
	movl	-20(%rbp), %ecx
	movslq	%ecx, %rcx
	.loc 3 363 41
	salq	$2, %rcx
	subq	$4, %rcx
	addq	%rcx, %rax
	movl	(%rax), %eax
	.loc 3 363 13
	cmpl	%eax, %edx
	jge	.L74
	.loc 3 365 24
	movq	16(%rbp), %rax
	movq	(%rax), %rax
	.loc 3 365 31
	movl	-20(%rbp), %edx
	movslq	%edx, %rdx
	.loc 3 365 32
	salq	$2, %rdx
	addq	%rdx, %rax
	.loc 3 365 22
	movl	(%rax), %eax
	movl	%eax, -24(%rbp)
	.loc 3 366 29
	movq	16(%rbp), %rax
	movq	(%rax), %rax
	.loc 3 366 36
	movl	-20(%rbp), %edx
	movslq	%edx, %rdx
	.loc 3 366 41
	salq	$2, %rdx
	subq	$4, %rdx
	leaq	(%rax,%rdx), %rcx
	.loc 3 366 17
	movq	16(%rbp), %rax
	movq	(%rax), %rax
	.loc 3 366 24
	movl	-20(%rbp), %edx
	movslq	%edx, %rdx
	.loc 3 366 25
	salq	$2, %rdx
	addq	%rax, %rdx
	.loc 3 366 41
	movl	(%rcx), %eax
	.loc 3 366 27
	movl	%eax, (%rdx)
	.loc 3 367 17
	movq	16(%rbp), %rax
	movq	(%rax), %rax
	.loc 3 367 24
	movl	-20(%rbp), %edx
	movslq	%edx, %rdx
	.loc 3 367 29
	salq	$2, %rdx
	subq	$4, %rdx
	addq	%rax, %rdx
	.loc 3 367 31
	movl	-24(%rbp), %eax
	movl	%eax, (%rdx)
	.loc 3 368 24
	movb	$0, -9(%rbp)
.L74:
	.loc 3 361 9 discriminator 2
	subl	$1, -20(%rbp)
.L73:
	.loc 3 361 35 discriminator 1
	movl	-20(%rbp), %eax
	cmpl	-4(%rbp), %eax
	jge	.L75
.LBE73:
	.loc 3 371 17
	addl	$1, -4(%rbp)
.LBE71:
	.loc 3 373 21
	movzbl	-9(%rbp), %eax
	testl	%eax, %eax
	je	.L76
	.loc 3 375 12
	movq	16(%rbp), %rax
	movq	(%rax), %rax
	.loc 3 376 1
	addq	$32, %rsp
	popq	%rbp
	.cfi_restore 6
	.cfi_def_cfa 7, 8
	ret
	.cfi_endproc
.LFE8660:
	.seh_endproc
	.globl	_Z10PrintArrayPii
	.def	_Z10PrintArrayPii;	.scl	2;	.type	32;	.endef
	.seh_proc	_Z10PrintArrayPii
_Z10PrintArrayPii:
.LFB8661:
	.loc 3 379 1
	.cfi_startproc
	pushq	%rbp
	.seh_pushreg	%rbp
	.cfi_def_cfa_offset 16
	.cfi_offset 6, -16
	movq	%rsp, %rbp
	.seh_setframe	%rbp, 0
	.cfi_def_cfa_register 6
	subq	$48, %rsp
	.seh_stackalloc	48
	.seh_endprologue
	movq	%rcx, 16(%rbp)
	movl	%edx, 24(%rbp)
	.loc 3 380 5
	cmpq	$0, 16(%rbp)
	je	.L83
.LBB74:
	.loc 3 384 14
	movl	$0, -4(%rbp)
	.loc 3 384 5
	jmp	.L81
.L82:
	.loc 3 386 29
	movl	-4(%rbp), %eax
	cltq
	.loc 3 386 30
	leaq	0(,%rax,4), %rdx
	movq	16(%rbp), %rax
	addq	%rdx, %rax
	.loc 3 386 35
	movl	(%rax), %eax
	movl	%eax, %edx
	movq	.refptr._ZSt4cout(%rip), %rax
	movq	%rax, %rcx
	call	_ZNSolsEi
	.loc 3 386 35 is_stmt 0 discriminator 1
	movl	$32, %edx
	movq	%rax, %rcx
	call	_ZStlsISt11char_traitsIcEERSt13basic_ostreamIcT_ES5_c
	.loc 3 384 5 is_stmt 1 discriminator 3
	addl	$1, -4(%rbp)
.L81:
	.loc 3 384 23 discriminator 1
	movl	-4(%rbp), %eax
	cmpl	24(%rbp), %eax
	jl	.L82
.LBE74:
	.loc 3 388 23
	movq	.refptr._ZSt4endlIcSt11char_traitsIcEERSt13basic_ostreamIT_T0_ES6_(%rip), %rax
	movq	%rax, %rdx
	movq	.refptr._ZSt4cout(%rip), %rax
	movq	%rax, %rcx
	call	_ZNSolsEPFRSoS_E
	jmp	.L78
.L83:
	.loc 3 382 9
	nop
.L78:
	.loc 3 389 1
	addq	$48, %rsp
	popq	%rbp
	.cfi_restore 6
	.cfi_def_cfa 7, 8
	ret
	.cfi_endproc
.LFE8661:
	.seh_endproc
	.section .rdata,"dr"
.LC18:
	.ascii "\12 Array Time Auto Test\12\0"
.LC19:
	.ascii " | \0"
.LC20:
	.ascii "   \0"
.LC21:
	.ascii "Best case      \0"
.LC22:
	.ascii "      \0"
.LC23:
	.ascii "Average case      \0"
.LC24:
	.ascii "Worst case      \0"
.LC25:
	.ascii "Count\0"
.LC26:
	.ascii "Quick\0"
.LC27:
	.ascii "Shell\0"
.LC28:
	.ascii "Pyramid\0"
.LC29:
	.ascii "Shaker\0"
	.text
	.globl	_Z13arrayAutoTesti
	.def	_Z13arrayAutoTesti;	.scl	2;	.type	32;	.endef
	.seh_proc	_Z13arrayAutoTesti
_Z13arrayAutoTesti:
.LFB8662:
	.loc 3 392 1
	.cfi_startproc
	pushq	%rbp
	.seh_pushreg	%rbp
	.cfi_def_cfa_offset 16
	.cfi_offset 6, -16
	pushq	%rbx
	.seh_pushreg	%rbx
	.cfi_def_cfa_offset 24
	.cfi_offset 3, -24
	subq	$216, %rsp
	.seh_stackalloc	216
	.cfi_def_cfa_offset 240
	leaq	208(%rsp), %rbp
	.seh_setframe	%rbp, 208
	.cfi_def_cfa 6, 32
	.seh_endprologue
	movl	%ecx, 32(%rbp)
	.loc 3 393 18
	leaq	.LC18(%rip), %rax
	movq	%rax, %rdx
	movq	.refptr._ZSt4cout(%rip), %rax
	movq	%rax, %rcx
.LEHB0:
	call	_ZStlsISt11char_traitsIcEERSt13basic_ostreamIcT_ES5_PKc
.LEHE0:
	.loc 3 394 15
	movl	$12, -8(%rbp)
	leaq	-129(%rbp), %rax
	movq	%rax, -24(%rbp)
.LBB75:
.LBB76:
.LBB77:
.LBB78:
.LBB79:
	.file 4 "C:/mingw64/include/c++/14.2.0/bits/new_allocator.h"
	.loc 4 88 49
	nop
.LBE79:
.LBE78:
.LBE77:
	.file 5 "C:/mingw64/include/c++/14.2.0/bits/allocator.h"
	.loc 5 161 38
	nop
.LBE76:
.LBE75:
	.loc 3 396 49 discriminator 1
	leaq	-129(%rbp), %rdx
	leaq	-176(%rbp), %rax
	movq	%rdx, %r9
	movl	$45, %r8d
	movl	$188, %edx
	movq	%rax, %rcx
.LEHB1:
	call	_ZNSt7__cxx1112basic_stringIcSt11char_traitsIcESaIcEEC1IS3_EEycRKS3_
.LEHE1:
	.loc 3 396 49 is_stmt 0 discriminator 2
	leaq	-176(%rbp), %rax
	movq	%rax, %rdx
	movq	.refptr._ZSt4cout(%rip), %rax
	movq	%rax, %rcx
.LEHB2:
	call	_ZStlsIcSt11char_traitsIcESaIcEERSt13basic_ostreamIT_T0_ES7_RKNSt7__cxx1112basic_stringIS4_S5_T1_EE
	movq	%rax, %rcx
	.loc 3 396 59 is_stmt 1 discriminator 4
	movq	.refptr._ZSt4endlIcSt11char_traitsIcEERSt13basic_ostreamIT_T0_ES6_(%rip), %rax
	movq	%rax, %rdx
	call	_ZNSolsEPFRSoS_E
.LEHE2:
	.loc 3 396 23 discriminator 6
	leaq	-176(%rbp), %rax
	movq	%rax, %rcx
	call	_ZNSt7__cxx1112basic_stringIcSt11char_traitsIcESaIcEED1Ev
.LBB80:
.LBB81:
.LBB82:
	.loc 5 182 39
	leaq	-129(%rbp), %rax
	movq	%rax, %rcx
	call	_ZNSt15__new_allocatorIcED2Ev
.LBE82:
	nop
.LBE81:
.LBE80:
	.loc 3 402 45
	movl	$6, %ecx
	call	_ZSt4setwi
	.loc 3 402 45 is_stmt 0 discriminator 1
	movl	%eax, %edx
	movq	.refptr._ZSt4cout(%rip), %rax
	movq	%rax, %rcx
	call	_ZStlsIcSt11char_traitsIcEERSt13basic_ostreamIT_T0_ES6_St5_Setw
	.loc 3 402 45 discriminator 2
	movl	$32, %edx
	movq	%rax, %rcx
.LEHB3:
	call	_ZStlsISt11char_traitsIcEERSt13basic_ostreamIcT_ES5_c
	movq	%rax, %rcx
	.loc 3 402 45 discriminator 3
	leaq	.LC19(%rip), %rax
	movq	%rax, %rdx
	call	_ZStlsISt11char_traitsIcEERSt13basic_ostreamIcT_ES5_PKc
	movq	%rax, %rbx
	.loc 3 402 45 discriminator 4
	movl	$12, %ecx
	call	_ZSt4setwi
	.loc 3 402 45 discriminator 5
	movl	%eax, %edx
	movq	%rbx, %rcx
	call	_ZStlsIcSt11char_traitsIcEERSt13basic_ostreamIT_T0_ES6_St5_Setw
	.loc 3 402 45 discriminator 6
	movl	$32, %edx
	movq	%rax, %rcx
	call	_ZStlsISt11char_traitsIcEERSt13basic_ostreamIcT_ES5_c
	movq	%rax, %rcx
	.loc 3 402 45 discriminator 7
	leaq	.LC20(%rip), %rax
	movq	%rax, %rdx
	call	_ZStlsISt11char_traitsIcEERSt13basic_ostreamIcT_ES5_PKc
	movq	%rax, %rbx
	.loc 3 402 45 discriminator 8
	movl	$24, %ecx
	call	_ZSt4setwi
	.loc 3 402 45 discriminator 9
	movl	%eax, %edx
	movq	%rbx, %rcx
	call	_ZStlsIcSt11char_traitsIcEERSt13basic_ostreamIT_T0_ES6_St5_Setw
	movq	%rax, %rcx
	.loc 3 402 45 discriminator 10
	leaq	.LC21(%rip), %rax
	movq	%rax, %rdx
	call	_ZStlsISt11char_traitsIcEERSt13basic_ostreamIcT_ES5_PKc
	movq	%rax, %rcx
	.loc 3 402 45 discriminator 11
	leaq	.LC22(%rip), %rax
	movq	%rax, %rdx
	call	_ZStlsISt11char_traitsIcEERSt13basic_ostreamIcT_ES5_PKc
	movq	%rax, %rbx
	.loc 3 402 45 discriminator 12
	movl	$12, %ecx
	call	_ZSt4setwi
	.loc 3 402 45 discriminator 13
	movl	%eax, %edx
	movq	%rbx, %rcx
	call	_ZStlsIcSt11char_traitsIcEERSt13basic_ostreamIT_T0_ES6_St5_Setw
	.loc 3 402 45 discriminator 14
	movl	$32, %edx
	movq	%rax, %rcx
	call	_ZStlsISt11char_traitsIcEERSt13basic_ostreamIcT_ES5_c
	movq	%rax, %rcx
	.loc 3 402 45 discriminator 15
	leaq	.LC19(%rip), %rax
	movq	%rax, %rdx
	call	_ZStlsISt11char_traitsIcEERSt13basic_ostreamIcT_ES5_PKc
	movq	%rax, %rbx
	.loc 3 402 45 discriminator 16
	movl	$12, %ecx
	call	_ZSt4setwi
	.loc 3 402 45 discriminator 17
	movl	%eax, %edx
	movq	%rbx, %rcx
	call	_ZStlsIcSt11char_traitsIcEERSt13basic_ostreamIT_T0_ES6_St5_Setw
	.loc 3 402 45 discriminator 18
	movl	$32, %edx
	movq	%rax, %rcx
	call	_ZStlsISt11char_traitsIcEERSt13basic_ostreamIcT_ES5_c
	movq	%rax, %rcx
	.loc 3 402 45 discriminator 19
	leaq	.LC20(%rip), %rax
	movq	%rax, %rdx
	call	_ZStlsISt11char_traitsIcEERSt13basic_ostreamIcT_ES5_PKc
	movq	%rax, %rbx
	.loc 3 402 45 discriminator 20
	movl	$24, %ecx
	call	_ZSt4setwi
	.loc 3 402 45 discriminator 21
	movl	%eax, %edx
	movq	%rbx, %rcx
	call	_ZStlsIcSt11char_traitsIcEERSt13basic_ostreamIT_T0_ES6_St5_Setw
	movq	%rax, %rcx
	.loc 3 402 45 discriminator 22
	leaq	.LC23(%rip), %rax
	movq	%rax, %rdx
	call	_ZStlsISt11char_traitsIcEERSt13basic_ostreamIcT_ES5_PKc
	movq	%rax, %rcx
	.loc 3 402 45 discriminator 23
	leaq	.LC22(%rip), %rax
	movq	%rax, %rdx
	call	_ZStlsISt11char_traitsIcEERSt13basic_ostreamIcT_ES5_PKc
	movq	%rax, %rbx
	.loc 3 402 45 discriminator 24
	movl	$12, %ecx
	call	_ZSt4setwi
	.loc 3 402 45 discriminator 25
	movl	%eax, %edx
	movq	%rbx, %rcx
	call	_ZStlsIcSt11char_traitsIcEERSt13basic_ostreamIT_T0_ES6_St5_Setw
	.loc 3 402 45 discriminator 26
	movl	$32, %edx
	movq	%rax, %rcx
	call	_ZStlsISt11char_traitsIcEERSt13basic_ostreamIcT_ES5_c
	movq	%rax, %rcx
	.loc 3 402 45 discriminator 27
	leaq	.LC19(%rip), %rax
	movq	%rax, %rdx
	call	_ZStlsISt11char_traitsIcEERSt13basic_ostreamIcT_ES5_PKc
	movq	%rax, %rbx
	.loc 3 402 45 discriminator 28
	movl	$12, %ecx
	call	_ZSt4setwi
	.loc 3 402 45 discriminator 29
	movl	%eax, %edx
	movq	%rbx, %rcx
	call	_ZStlsIcSt11char_traitsIcEERSt13basic_ostreamIT_T0_ES6_St5_Setw
	.loc 3 402 45 discriminator 30
	movl	$32, %edx
	movq	%rax, %rcx
	call	_ZStlsISt11char_traitsIcEERSt13basic_ostreamIcT_ES5_c
	movq	%rax, %rcx
	.loc 3 402 45 discriminator 31
	leaq	.LC20(%rip), %rax
	movq	%rax, %rdx
	call	_ZStlsISt11char_traitsIcEERSt13basic_ostreamIcT_ES5_PKc
	movq	%rax, %rbx
	.loc 3 402 45 discriminator 32
	movl	$24, %ecx
	call	_ZSt4setwi
	.loc 3 402 45 discriminator 33
	movl	%eax, %edx
	movq	%rbx, %rcx
	call	_ZStlsIcSt11char_traitsIcEERSt13basic_ostreamIT_T0_ES6_St5_Setw
	movq	%rax, %rcx
	.loc 3 402 45 discriminator 34
	leaq	.LC24(%rip), %rax
	movq	%rax, %rdx
	call	_ZStlsISt11char_traitsIcEERSt13basic_ostreamIcT_ES5_PKc
	movq	%rax, %rcx
	.loc 3 402 45 discriminator 35
	leaq	.LC22(%rip), %rax
	movq	%rax, %rdx
	call	_ZStlsISt11char_traitsIcEERSt13basic_ostreamIcT_ES5_PKc
	movq	%rax, %rbx
	.loc 3 402 45 discriminator 36
	movl	$12, %ecx
	call	_ZSt4setwi
	.loc 3 402 45 discriminator 37
	movl	%eax, %edx
	movq	%rbx, %rcx
	call	_ZStlsIcSt11char_traitsIcEERSt13basic_ostreamIT_T0_ES6_St5_Setw
	.loc 3 402 45 discriminator 38
	movl	$32, %edx
	movq	%rax, %rcx
	call	_ZStlsISt11char_traitsIcEERSt13basic_ostreamIcT_ES5_c
	movq	%rax, %rcx
	.loc 3 402 45 discriminator 39
	leaq	.LC19(%rip), %rax
	movq	%rax, %rdx
	call	_ZStlsISt11char_traitsIcEERSt13basic_ostreamIcT_ES5_PKc
	movq	%rax, %rcx
	.loc 3 402 59 is_stmt 1 discriminator 40
	movq	.refptr._ZSt4endlIcSt11char_traitsIcEERSt13basic_ostreamIT_T0_ES6_(%rip), %rax
	movq	%rax, %rdx
	call	_ZNSolsEPFRSoS_E
	.loc 3 410 30
	movl	$6, %ecx
	call	_ZSt4setwi
	.loc 3 410 30 is_stmt 0 discriminator 1
	movl	%eax, %edx
	movq	.refptr._ZSt4cout(%rip), %rax
	movq	%rax, %rcx
	call	_ZStlsIcSt11char_traitsIcEERSt13basic_ostreamIT_T0_ES6_St5_Setw
	movq	%rax, %rcx
	.loc 3 410 30 discriminator 2
	leaq	.LC25(%rip), %rax
	movq	%rax, %rdx
	call	_ZStlsISt11char_traitsIcEERSt13basic_ostreamIcT_ES5_PKc
	movq	%rax, %rcx
	.loc 3 410 30 discriminator 3
	leaq	.LC19(%rip), %rax
	movq	%rax, %rdx
	call	_ZStlsISt11char_traitsIcEERSt13basic_ostreamIcT_ES5_PKc
	movq	%rax, %rbx
	.loc 3 410 30 discriminator 4
	movl	$12, %ecx
	call	_ZSt4setwi
	.loc 3 410 30 discriminator 5
	movl	%eax, %edx
	movq	%rbx, %rcx
	call	_ZStlsIcSt11char_traitsIcEERSt13basic_ostreamIT_T0_ES6_St5_Setw
	movq	%rax, %rcx
	.loc 3 410 30 discriminator 6
	leaq	.LC26(%rip), %rax
	movq	%rax, %rdx
	call	_ZStlsISt11char_traitsIcEERSt13basic_ostreamIcT_ES5_PKc
	movq	%rax, %rcx
	.loc 3 410 30 discriminator 7
	leaq	.LC19(%rip), %rax
	movq	%rax, %rdx
	call	_ZStlsISt11char_traitsIcEERSt13basic_ostreamIcT_ES5_PKc
	movq	%rax, %rbx
	.loc 3 410 30 discriminator 8
	movl	$12, %ecx
	call	_ZSt4setwi
	.loc 3 410 30 discriminator 9
	movl	%eax, %edx
	movq	%rbx, %rcx
	call	_ZStlsIcSt11char_traitsIcEERSt13basic_ostreamIT_T0_ES6_St5_Setw
	movq	%rax, %rcx
	.loc 3 410 30 discriminator 10
	leaq	.LC27(%rip), %rax
	movq	%rax, %rdx
	call	_ZStlsISt11char_traitsIcEERSt13basic_ostreamIcT_ES5_PKc
	movq	%rax, %rcx
	.loc 3 410 30 discriminator 11
	leaq	.LC19(%rip), %rax
	movq	%rax, %rdx
	call	_ZStlsISt11char_traitsIcEERSt13basic_ostreamIcT_ES5_PKc
	movq	%rax, %rbx
	.loc 3 410 30 discriminator 12
	movl	$12, %ecx
	call	_ZSt4setwi
	.loc 3 410 30 discriminator 13
	movl	%eax, %edx
	movq	%rbx, %rcx
	call	_ZStlsIcSt11char_traitsIcEERSt13basic_ostreamIT_T0_ES6_St5_Setw
	movq	%rax, %rcx
	.loc 3 410 30 discriminator 14
	leaq	.LC28(%rip), %rax
	movq	%rax, %rdx
	call	_ZStlsISt11char_traitsIcEERSt13basic_ostreamIcT_ES5_PKc
	movq	%rax, %rcx
	.loc 3 410 30 discriminator 15
	leaq	.LC19(%rip), %rax
	movq	%rax, %rdx
	call	_ZStlsISt11char_traitsIcEERSt13basic_ostreamIcT_ES5_PKc
	movq	%rax, %rbx
	.loc 3 410 30 discriminator 16
	movl	$12, %ecx
	call	_ZSt4setwi
	.loc 3 410 30 discriminator 17
	movl	%eax, %edx
	movq	%rbx, %rcx
	call	_ZStlsIcSt11char_traitsIcEERSt13basic_ostreamIT_T0_ES6_St5_Setw
	movq	%rax, %rcx
	.loc 3 410 30 discriminator 18
	leaq	.LC29(%rip), %rax
	movq	%rax, %rdx
	call	_ZStlsISt11char_traitsIcEERSt13basic_ostreamIcT_ES5_PKc
	movq	%rax, %rcx
	.loc 3 410 30 discriminator 19
	leaq	.LC19(%rip), %rax
	movq	%rax, %rdx
	call	_ZStlsISt11char_traitsIcEERSt13basic_ostreamIcT_ES5_PKc
	movq	%rax, %rbx
	.loc 3 410 30 discriminator 20
	movl	$12, %ecx
	call	_ZSt4setwi
	.loc 3 410 30 discriminator 21
	movl	%eax, %edx
	movq	%rbx, %rcx
	call	_ZStlsIcSt11char_traitsIcEERSt13basic_ostreamIT_T0_ES6_St5_Setw
	movq	%rax, %rcx
	.loc 3 410 30 discriminator 22
	leaq	.LC26(%rip), %rax
	movq	%rax, %rdx
	call	_ZStlsISt11char_traitsIcEERSt13basic_ostreamIcT_ES5_PKc
	movq	%rax, %rcx
	.loc 3 410 30 discriminator 23
	leaq	.LC19(%rip), %rax
	movq	%rax, %rdx
	call	_ZStlsISt11char_traitsIcEERSt13basic_ostreamIcT_ES5_PKc
	movq	%rax, %rbx
	.loc 3 410 30 discriminator 24
	movl	$12, %ecx
	call	_ZSt4setwi
	.loc 3 410 30 discriminator 25
	movl	%eax, %edx
	movq	%rbx, %rcx
	call	_ZStlsIcSt11char_traitsIcEERSt13basic_ostreamIT_T0_ES6_St5_Setw
	movq	%rax, %rcx
	.loc 3 410 30 discriminator 26
	leaq	.LC27(%rip), %rax
	movq	%rax, %rdx
	call	_ZStlsISt11char_traitsIcEERSt13basic_ostreamIcT_ES5_PKc
	movq	%rax, %rcx
	.loc 3 410 30 discriminator 27
	leaq	.LC19(%rip), %rax
	movq	%rax, %rdx
	call	_ZStlsISt11char_traitsIcEERSt13basic_ostreamIcT_ES5_PKc
	movq	%rax, %rbx
	.loc 3 410 30 discriminator 28
	movl	$12, %ecx
	call	_ZSt4setwi
	.loc 3 410 30 discriminator 29
	movl	%eax, %edx
	movq	%rbx, %rcx
	call	_ZStlsIcSt11char_traitsIcEERSt13basic_ostreamIT_T0_ES6_St5_Setw
	movq	%rax, %rcx
	.loc 3 410 30 discriminator 30
	leaq	.LC28(%rip), %rax
	movq	%rax, %rdx
	call	_ZStlsISt11char_traitsIcEERSt13basic_ostreamIcT_ES5_PKc
	movq	%rax, %rcx
	.loc 3 410 30 discriminator 31
	leaq	.LC19(%rip), %rax
	movq	%rax, %rdx
	call	_ZStlsISt11char_traitsIcEERSt13basic_ostreamIcT_ES5_PKc
	movq	%rax, %rbx
	.loc 3 410 30 discriminator 32
	movl	$12, %ecx
	call	_ZSt4setwi
	.loc 3 410 30 discriminator 33
	movl	%eax, %edx
	movq	%rbx, %rcx
	call	_ZStlsIcSt11char_traitsIcEERSt13basic_ostreamIT_T0_ES6_St5_Setw
	movq	%rax, %rcx
	.loc 3 410 30 discriminator 34
	leaq	.LC29(%rip), %rax
	movq	%rax, %rdx
	call	_ZStlsISt11char_traitsIcEERSt13basic_ostreamIcT_ES5_PKc
	movq	%rax, %rcx
	.loc 3 410 30 discriminator 35
	leaq	.LC19(%rip), %rax
	movq	%rax, %rdx
	call	_ZStlsISt11char_traitsIcEERSt13basic_ostreamIcT_ES5_PKc
	movq	%rax, %rbx
	.loc 3 410 30 discriminator 36
	movl	$12, %ecx
	call	_ZSt4setwi
	.loc 3 410 30 discriminator 37
	movl	%eax, %edx
	movq	%rbx, %rcx
	call	_ZStlsIcSt11char_traitsIcEERSt13basic_ostreamIT_T0_ES6_St5_Setw
	movq	%rax, %rcx
	.loc 3 410 30 discriminator 38
	leaq	.LC26(%rip), %rax
	movq	%rax, %rdx
	call	_ZStlsISt11char_traitsIcEERSt13basic_ostreamIcT_ES5_PKc
	movq	%rax, %rcx
	.loc 3 410 30 discriminator 39
	leaq	.LC19(%rip), %rax
	movq	%rax, %rdx
	call	_ZStlsISt11char_traitsIcEERSt13basic_ostreamIcT_ES5_PKc
	movq	%rax, %rbx
	.loc 3 410 30 discriminator 40
	movl	$12, %ecx
	call	_ZSt4setwi
	.loc 3 410 30 discriminator 41
	movl	%eax, %edx
	movq	%rbx, %rcx
	call	_ZStlsIcSt11char_traitsIcEERSt13basic_ostreamIT_T0_ES6_St5_Setw
	movq	%rax, %rcx
	.loc 3 410 30 discriminator 42
	leaq	.LC27(%rip), %rax
	movq	%rax, %rdx
	call	_ZStlsISt11char_traitsIcEERSt13basic_ostreamIcT_ES5_PKc
	movq	%rax, %rcx
	.loc 3 410 30 discriminator 43
	leaq	.LC19(%rip), %rax
	movq	%rax, %rdx
	call	_ZStlsISt11char_traitsIcEERSt13basic_ostreamIcT_ES5_PKc
	movq	%rax, %rbx
	.loc 3 410 30 discriminator 44
	movl	$12, %ecx
	call	_ZSt4setwi
	.loc 3 410 30 discriminator 45
	movl	%eax, %edx
	movq	%rbx, %rcx
	call	_ZStlsIcSt11char_traitsIcEERSt13basic_ostreamIT_T0_ES6_St5_Setw
	movq	%rax, %rcx
	.loc 3 410 30 discriminator 46
	leaq	.LC28(%rip), %rax
	movq	%rax, %rdx
	call	_ZStlsISt11char_traitsIcEERSt13basic_ostreamIcT_ES5_PKc
	movq	%rax, %rcx
	.loc 3 410 30 discriminator 47
	leaq	.LC19(%rip), %rax
	movq	%rax, %rdx
	call	_ZStlsISt11char_traitsIcEERSt13basic_ostreamIcT_ES5_PKc
	movq	%rax, %rbx
	.loc 3 410 30 discriminator 48
	movl	$12, %ecx
	call	_ZSt4setwi
	.loc 3 410 30 discriminator 49
	movl	%eax, %edx
	movq	%rbx, %rcx
	call	_ZStlsIcSt11char_traitsIcEERSt13basic_ostreamIT_T0_ES6_St5_Setw
	movq	%rax, %rcx
	.loc 3 410 30 discriminator 50
	leaq	.LC29(%rip), %rax
	movq	%rax, %rdx
	call	_ZStlsISt11char_traitsIcEERSt13basic_ostreamIcT_ES5_PKc
	movq	%rax, %rcx
	.loc 3 410 30 discriminator 51
	leaq	.LC19(%rip), %rax
	movq	%rax, %rdx
	call	_ZStlsISt11char_traitsIcEERSt13basic_ostreamIcT_ES5_PKc
	movq	%rax, %rcx
	.loc 3 410 44 is_stmt 1 discriminator 52
	movq	.refptr._ZSt4endlIcSt11char_traitsIcEERSt13basic_ostreamIT_T0_ES6_(%rip), %rax
	movq	%rax, %rdx
	call	_ZNSolsEPFRSoS_E
.LEHE3:
	leaq	-81(%rbp), %rax
	movq	%rax, -32(%rbp)
.LBB83:
.LBB84:
.LBB85:
.LBB86:
.LBB87:
	.loc 4 88 49
	nop
.LBE87:
.LBE86:
.LBE85:
	.loc 5 161 38
	nop
.LBE84:
.LBE83:
	.loc 3 413 49 discriminator 1
	leaq	-81(%rbp), %rdx
	leaq	-128(%rbp), %rax
	movq	%rdx, %r9
	movl	$45, %r8d
	movl	$188, %edx
	movq	%rax, %rcx
.LEHB4:
	call	_ZNSt7__cxx1112basic_stringIcSt11char_traitsIcESaIcEEC1IS3_EEycRKS3_
.LEHE4:
	.loc 3 413 49 is_stmt 0 discriminator 2
	leaq	-128(%rbp), %rax
	movq	%rax, %rdx
	movq	.refptr._ZSt4cout(%rip), %rax
	movq	%rax, %rcx
.LEHB5:
	call	_ZStlsIcSt11char_traitsIcESaIcEERSt13basic_ostreamIT_T0_ES7_RKNSt7__cxx1112basic_stringIS4_S5_T1_EE
	movq	%rax, %rcx
	.loc 3 413 59 is_stmt 1 discriminator 4
	movq	.refptr._ZSt4endlIcSt11char_traitsIcEERSt13basic_ostreamIT_T0_ES6_(%rip), %rax
	movq	%rax, %rdx
	call	_ZNSolsEPFRSoS_E
.LEHE5:
	.loc 3 413 23 discriminator 6
	leaq	-128(%rbp), %rax
	movq	%rax, %rcx
	call	_ZNSt7__cxx1112basic_stringIcSt11char_traitsIcESaIcEED1Ev
.LBB88:
.LBB89:
.LBB90:
	.loc 5 182 39
	leaq	-81(%rbp), %rax
	movq	%rax, %rcx
	call	_ZNSt15__new_allocatorIcED2Ev
.LBE90:
	nop
.LBE89:
.LBE88:
.LBB91:
	.loc 3 414 14
	movl	$100, -4(%rbp)
	.loc 3 414 5
	jmp	.L85
.L86:
.LBB92:
	.loc 3 416 13
	movl	-4(%rbp), %eax
	movl	%eax, -12(%rbp)
	.loc 3 417 41
	movl	$6, %ecx
	call	_ZSt4setwi
	.loc 3 417 41 is_stmt 0 discriminator 1
	movl	%eax, %edx
	movq	.refptr._ZSt4cout(%rip), %rax
	movq	%rax, %rcx
	call	_ZStlsIcSt11char_traitsIcEERSt13basic_ostreamIT_T0_ES6_St5_Setw
	movq	%rax, %rcx
	.loc 3 417 75 is_stmt 1 discriminator 2
	movl	-4(%rbp), %eax
	movl	%eax, %edx
.LEHB6:
	call	_ZNSolsEi
	movq	%rax, %rcx
	.loc 3 417 75 is_stmt 0 discriminator 3
	leaq	.LC19(%rip), %rax
	movq	%rax, %rdx
	call	_ZStlsISt11char_traitsIcEERSt13basic_ostreamIcT_ES5_PKc
	movq	%rax, %rbx
	.loc 3 417 75 discriminator 4
	movl	$12, %ecx
	call	_ZSt4setwi
	.loc 3 417 75 discriminator 5
	movl	%eax, %edx
	movq	%rbx, %rcx
	call	_ZStlsIcSt11char_traitsIcEERSt13basic_ostreamIT_T0_ES6_St5_Setw
	movq	%rax, %rbx
	.loc 3 418 77 is_stmt 1
	movl	-12(%rbp), %eax
	movl	%eax, %r8d
	leaq	_Z17FillArrayBestCaseRPii(%rip), %rax
	movq	%rax, %rdx
	leaq	_Z9QuickSortRPii(%rip), %rax
	movq	%rax, %rcx
	call	_Z20autoSortTestForArrayPFPiRS_iEPFvS0_iEi
	.loc 3 418 77 is_stmt 0 discriminator 1
	movq	%rax, %rdx
	movq	%rbx, %rcx
	call	_ZNSolsEx
	movq	%rax, %rcx
	.loc 3 418 106 is_stmt 1 discriminator 2
	leaq	.LC19(%rip), %rax
	movq	%rax, %rdx
	call	_ZStlsISt11char_traitsIcEERSt13basic_ostreamIcT_ES5_PKc
	movq	%rax, %rbx
	.loc 3 418 106 is_stmt 0 discriminator 3
	movl	$12, %ecx
	call	_ZSt4setwi
	.loc 3 418 106 discriminator 4
	movl	%eax, %edx
	movq	%rbx, %rcx
	call	_ZStlsIcSt11char_traitsIcEERSt13basic_ostreamIT_T0_ES6_St5_Setw
	movq	%rax, %rbx
	.loc 3 419 77 is_stmt 1
	movl	-12(%rbp), %eax
	movl	%eax, %r8d
	leaq	_Z17FillArrayBestCaseRPii(%rip), %rax
	movq	%rax, %rdx
	leaq	_Z9ShellSortRPii(%rip), %rax
	movq	%rax, %rcx
	call	_Z20autoSortTestForArrayPFPiRS_iEPFvS0_iEi
	.loc 3 419 77 is_stmt 0 discriminator 1
	movq	%rax, %rdx
	movq	%rbx, %rcx
	call	_ZNSolsEx
	movq	%rax, %rcx
	.loc 3 419 106 is_stmt 1 discriminator 2
	leaq	.LC19(%rip), %rax
	movq	%rax, %rdx
	call	_ZStlsISt11char_traitsIcEERSt13basic_ostreamIcT_ES5_PKc
	movq	%rax, %rbx
	.loc 3 419 106 is_stmt 0 discriminator 3
	movl	$12, %ecx
	call	_ZSt4setwi
	.loc 3 419 106 discriminator 4
	movl	%eax, %edx
	movq	%rbx, %rcx
	call	_ZStlsIcSt11char_traitsIcEERSt13basic_ostreamIT_T0_ES6_St5_Setw
	movq	%rax, %rbx
	.loc 3 420 79 is_stmt 1
	movl	-12(%rbp), %eax
	movl	%eax, %r8d
	leaq	_Z17FillArrayBestCaseRPii(%rip), %rax
	movq	%rax, %rdx
	leaq	_Z11PyramidSortRPii(%rip), %rax
	movq	%rax, %rcx
	call	_Z20autoSortTestForArrayPFPiRS_iEPFvS0_iEi
	.loc 3 420 79 is_stmt 0 discriminator 1
	movq	%rax, %rdx
	movq	%rbx, %rcx
	call	_ZNSolsEx
	movq	%rax, %rcx
	.loc 3 420 108 is_stmt 1 discriminator 2
	leaq	.LC19(%rip), %rax
	movq	%rax, %rdx
	call	_ZStlsISt11char_traitsIcEERSt13basic_ostreamIcT_ES5_PKc
	movq	%rax, %rbx
	.loc 3 420 108 is_stmt 0 discriminator 3
	movl	$12, %ecx
	call	_ZSt4setwi
	.loc 3 420 108 discriminator 4
	movl	%eax, %edx
	movq	%rbx, %rcx
	call	_ZStlsIcSt11char_traitsIcEERSt13basic_ostreamIT_T0_ES6_St5_Setw
	movq	%rax, %rbx
	.loc 3 421 78 is_stmt 1
	movl	-12(%rbp), %eax
	movl	%eax, %r8d
	leaq	_Z17FillArrayBestCaseRPii(%rip), %rax
	movq	%rax, %rdx
	leaq	_Z10ShakerSortRPii(%rip), %rax
	movq	%rax, %rcx
	call	_Z20autoSortTestForArrayPFPiRS_iEPFvS0_iEi
	.loc 3 421 78 is_stmt 0 discriminator 1
	movq	%rax, %rdx
	movq	%rbx, %rcx
	call	_ZNSolsEx
	movq	%rax, %rcx
	.loc 3 421 107 is_stmt 1 discriminator 2
	leaq	.LC19(%rip), %rax
	movq	%rax, %rdx
	call	_ZStlsISt11char_traitsIcEERSt13basic_ostreamIcT_ES5_PKc
	movq	%rax, %rbx
	.loc 3 421 107 is_stmt 0 discriminator 3
	movl	$12, %ecx
	call	_ZSt4setwi
	.loc 3 421 107 discriminator 4
	movl	%eax, %edx
	movq	%rbx, %rcx
	call	_ZStlsIcSt11char_traitsIcEERSt13basic_ostreamIT_T0_ES6_St5_Setw
	movq	%rax, %rbx
	.loc 3 422 79 is_stmt 1
	movl	-12(%rbp), %eax
	movl	%eax, %r8d
	leaq	_Z19FillArrayMiddleCaseRPii(%rip), %rax
	movq	%rax, %rdx
	leaq	_Z9QuickSortRPii(%rip), %rax
	movq	%rax, %rcx
	call	_Z20autoSortTestForArrayPFPiRS_iEPFvS0_iEi
	.loc 3 422 79 is_stmt 0 discriminator 1
	movq	%rax, %rdx
	movq	%rbx, %rcx
	call	_ZNSolsEx
	movq	%rax, %rcx
	.loc 3 422 108 is_stmt 1 discriminator 2
	leaq	.LC19(%rip), %rax
	movq	%rax, %rdx
	call	_ZStlsISt11char_traitsIcEERSt13basic_ostreamIcT_ES5_PKc
	movq	%rax, %rbx
	.loc 3 422 108 is_stmt 0 discriminator 3
	movl	$12, %ecx
	call	_ZSt4setwi
	.loc 3 422 108 discriminator 4
	movl	%eax, %edx
	movq	%rbx, %rcx
	call	_ZStlsIcSt11char_traitsIcEERSt13basic_ostreamIT_T0_ES6_St5_Setw
	movq	%rax, %rbx
	.loc 3 423 79 is_stmt 1
	movl	-12(%rbp), %eax
	movl	%eax, %r8d
	leaq	_Z19FillArrayMiddleCaseRPii(%rip), %rax
	movq	%rax, %rdx
	leaq	_Z9ShellSortRPii(%rip), %rax
	movq	%rax, %rcx
	call	_Z20autoSortTestForArrayPFPiRS_iEPFvS0_iEi
	.loc 3 423 79 is_stmt 0 discriminator 1
	movq	%rax, %rdx
	movq	%rbx, %rcx
	call	_ZNSolsEx
	movq	%rax, %rcx
	.loc 3 423 108 is_stmt 1 discriminator 2
	leaq	.LC19(%rip), %rax
	movq	%rax, %rdx
	call	_ZStlsISt11char_traitsIcEERSt13basic_ostreamIcT_ES5_PKc
	movq	%rax, %rbx
	.loc 3 423 108 is_stmt 0 discriminator 3
	movl	$12, %ecx
	call	_ZSt4setwi
	.loc 3 423 108 discriminator 4
	movl	%eax, %edx
	movq	%rbx, %rcx
	call	_ZStlsIcSt11char_traitsIcEERSt13basic_ostreamIT_T0_ES6_St5_Setw
	movq	%rax, %rbx
	.loc 3 424 81 is_stmt 1
	movl	-12(%rbp), %eax
	movl	%eax, %r8d
	leaq	_Z19FillArrayMiddleCaseRPii(%rip), %rax
	movq	%rax, %rdx
	leaq	_Z11PyramidSortRPii(%rip), %rax
	movq	%rax, %rcx
	call	_Z20autoSortTestForArrayPFPiRS_iEPFvS0_iEi
	.loc 3 424 81 is_stmt 0 discriminator 1
	movq	%rax, %rdx
	movq	%rbx, %rcx
	call	_ZNSolsEx
	movq	%rax, %rcx
	.loc 3 424 110 is_stmt 1 discriminator 2
	leaq	.LC19(%rip), %rax
	movq	%rax, %rdx
	call	_ZStlsISt11char_traitsIcEERSt13basic_ostreamIcT_ES5_PKc
	movq	%rax, %rbx
	.loc 3 424 110 is_stmt 0 discriminator 3
	movl	$12, %ecx
	call	_ZSt4setwi
	.loc 3 424 110 discriminator 4
	movl	%eax, %edx
	movq	%rbx, %rcx
	call	_ZStlsIcSt11char_traitsIcEERSt13basic_ostreamIT_T0_ES6_St5_Setw
	movq	%rax, %rbx
	.loc 3 425 80 is_stmt 1
	movl	-12(%rbp), %eax
	movl	%eax, %r8d
	leaq	_Z19FillArrayMiddleCaseRPii(%rip), %rax
	movq	%rax, %rdx
	leaq	_Z10ShakerSortRPii(%rip), %rax
	movq	%rax, %rcx
	call	_Z20autoSortTestForArrayPFPiRS_iEPFvS0_iEi
	.loc 3 425 80 is_stmt 0 discriminator 1
	movq	%rax, %rdx
	movq	%rbx, %rcx
	call	_ZNSolsEx
	movq	%rax, %rcx
	.loc 3 425 109 is_stmt 1 discriminator 2
	leaq	.LC19(%rip), %rax
	movq	%rax, %rdx
	call	_ZStlsISt11char_traitsIcEERSt13basic_ostreamIcT_ES5_PKc
	movq	%rax, %rbx
	.loc 3 425 109 is_stmt 0 discriminator 3
	movl	$12, %ecx
	call	_ZSt4setwi
	.loc 3 425 109 discriminator 4
	movl	%eax, %edx
	movq	%rbx, %rcx
	call	_ZStlsIcSt11char_traitsIcEERSt13basic_ostreamIT_T0_ES6_St5_Setw
	movq	%rax, %rbx
	.loc 3 426 76 is_stmt 1
	movl	-12(%rbp), %eax
	movl	%eax, %r8d
	leaq	_Z16FillArrayBadCaseRPii(%rip), %rax
	movq	%rax, %rdx
	leaq	_Z9QuickSortRPii(%rip), %rax
	movq	%rax, %rcx
	call	_Z20autoSortTestForArrayPFPiRS_iEPFvS0_iEi
	.loc 3 426 76 is_stmt 0 discriminator 1
	movq	%rax, %rdx
	movq	%rbx, %rcx
	call	_ZNSolsEx
	movq	%rax, %rcx
	.loc 3 426 105 is_stmt 1 discriminator 2
	leaq	.LC19(%rip), %rax
	movq	%rax, %rdx
	call	_ZStlsISt11char_traitsIcEERSt13basic_ostreamIcT_ES5_PKc
	movq	%rax, %rbx
	.loc 3 426 105 is_stmt 0 discriminator 3
	movl	$12, %ecx
	call	_ZSt4setwi
	.loc 3 426 105 discriminator 4
	movl	%eax, %edx
	movq	%rbx, %rcx
	call	_ZStlsIcSt11char_traitsIcEERSt13basic_ostreamIT_T0_ES6_St5_Setw
	movq	%rax, %rbx
	.loc 3 427 76 is_stmt 1
	movl	-12(%rbp), %eax
	movl	%eax, %r8d
	leaq	_Z16FillArrayBadCaseRPii(%rip), %rax
	movq	%rax, %rdx
	leaq	_Z9ShellSortRPii(%rip), %rax
	movq	%rax, %rcx
	call	_Z20autoSortTestForArrayPFPiRS_iEPFvS0_iEi
	.loc 3 427 76 is_stmt 0 discriminator 1
	movq	%rax, %rdx
	movq	%rbx, %rcx
	call	_ZNSolsEx
	movq	%rax, %rcx
	.loc 3 427 105 is_stmt 1 discriminator 2
	leaq	.LC19(%rip), %rax
	movq	%rax, %rdx
	call	_ZStlsISt11char_traitsIcEERSt13basic_ostreamIcT_ES5_PKc
	movq	%rax, %rbx
	.loc 3 427 105 is_stmt 0 discriminator 3
	movl	$12, %ecx
	call	_ZSt4setwi
	.loc 3 427 105 discriminator 4
	movl	%eax, %edx
	movq	%rbx, %rcx
	call	_ZStlsIcSt11char_traitsIcEERSt13basic_ostreamIT_T0_ES6_St5_Setw
	movq	%rax, %rbx
	.loc 3 428 78 is_stmt 1
	movl	-12(%rbp), %eax
	movl	%eax, %r8d
	leaq	_Z16FillArrayBadCaseRPii(%rip), %rax
	movq	%rax, %rdx
	leaq	_Z11PyramidSortRPii(%rip), %rax
	movq	%rax, %rcx
	call	_Z20autoSortTestForArrayPFPiRS_iEPFvS0_iEi
	.loc 3 428 78 is_stmt 0 discriminator 1
	movq	%rax, %rdx
	movq	%rbx, %rcx
	call	_ZNSolsEx
	movq	%rax, %rcx
	.loc 3 428 107 is_stmt 1 discriminator 2
	leaq	.LC19(%rip), %rax
	movq	%rax, %rdx
	call	_ZStlsISt11char_traitsIcEERSt13basic_ostreamIcT_ES5_PKc
	movq	%rax, %rbx
	.loc 3 428 107 is_stmt 0 discriminator 3
	movl	$12, %ecx
	call	_ZSt4setwi
	.loc 3 428 107 discriminator 4
	movl	%eax, %edx
	movq	%rbx, %rcx
	call	_ZStlsIcSt11char_traitsIcEERSt13basic_ostreamIT_T0_ES6_St5_Setw
	movq	%rax, %rbx
	.loc 3 429 77 is_stmt 1
	movl	-12(%rbp), %eax
	movl	%eax, %r8d
	leaq	_Z16FillArrayBadCaseRPii(%rip), %rax
	movq	%rax, %rdx
	leaq	_Z10ShakerSortRPii(%rip), %rax
	movq	%rax, %rcx
	call	_Z20autoSortTestForArrayPFPiRS_iEPFvS0_iEi
	.loc 3 429 77 is_stmt 0 discriminator 1
	movq	%rax, %rdx
	movq	%rbx, %rcx
	call	_ZNSolsEx
	movq	%rax, %rcx
	.loc 3 429 82 is_stmt 1 discriminator 2
	leaq	.LC19(%rip), %rax
	movq	%rax, %rdx
	call	_ZStlsISt11char_traitsIcEERSt13basic_ostreamIcT_ES5_PKc
	movq	%rax, %rcx
	.loc 3 429 96 discriminator 3
	movq	.refptr._ZSt4endlIcSt11char_traitsIcEERSt13basic_ostreamIT_T0_ES6_(%rip), %rax
	movq	%rax, %rdx
	call	_ZNSolsEPFRSoS_E
.LEHE6:
.LBE92:
	.loc 3 414 40 discriminator 3
	movl	TEST_STEP_SIZE(%rip), %eax
	addl	%eax, -4(%rbp)
.L85:
	.loc 3 414 25 discriminator 1
	movl	-4(%rbp), %eax
	cmpl	32(%rbp), %eax
	jle	.L86
	leaq	-41(%rbp), %rax
	movq	%rax, -40(%rbp)
.LBE91:
.LBB93:
.LBB94:
.LBB95:
.LBB96:
.LBB97:
	.loc 4 88 49
	nop
.LBE97:
.LBE96:
.LBE95:
	.loc 5 161 38
	nop
.LBE94:
.LBE93:
	.loc 3 431 49 discriminator 1
	leaq	-41(%rbp), %rdx
	leaq	-80(%rbp), %rax
	movq	%rdx, %r9
	movl	$45, %r8d
	movl	$188, %edx
	movq	%rax, %rcx
.LEHB7:
	call	_ZNSt7__cxx1112basic_stringIcSt11char_traitsIcESaIcEEC1IS3_EEycRKS3_
.LEHE7:
	.loc 3 431 49 is_stmt 0 discriminator 2
	leaq	-80(%rbp), %rax
	movq	%rax, %rdx
	movq	.refptr._ZSt4cout(%rip), %rax
	movq	%rax, %rcx
.LEHB8:
	call	_ZStlsIcSt11char_traitsIcESaIcEERSt13basic_ostreamIT_T0_ES7_RKNSt7__cxx1112basic_stringIS4_S5_T1_EE
	movq	%rax, %rcx
	.loc 3 431 59 is_stmt 1 discriminator 4
	movq	.refptr._ZSt4endlIcSt11char_traitsIcEERSt13basic_ostreamIT_T0_ES6_(%rip), %rax
	movq	%rax, %rdx
	call	_ZNSolsEPFRSoS_E
.LEHE8:
	.loc 3 431 23 discriminator 6
	leaq	-80(%rbp), %rax
	movq	%rax, %rcx
	call	_ZNSt7__cxx1112basic_stringIcSt11char_traitsIcESaIcEED1Ev
.LBB98:
.LBB99:
.LBB100:
	.loc 5 182 39
	leaq	-41(%rbp), %rax
	movq	%rax, %rcx
	call	_ZNSt15__new_allocatorIcED2Ev
.LBE100:
	nop
.LBE99:
.LBE98:
	.loc 3 432 1
	jmp	.L99
.L94:
	.loc 3 396 23 discriminator 5
	movq	%rax, %rbx
	leaq	-176(%rbp), %rax
	movq	%rax, %rcx
	call	_ZNSt7__cxx1112basic_stringIcSt11char_traitsIcESaIcEED1Ev
	jmp	.L88
.L93:
.LBB101:
.LBB102:
.LBB103:
	.loc 5 182 39
	movq	%rax, %rbx
.L88:
	leaq	-129(%rbp), %rax
	movq	%rax, %rcx
	call	_ZNSt15__new_allocatorIcED2Ev
.LBE103:
	nop
	movq	%rbx, %rax
	movq	%rax, %rcx
.LEHB9:
	call	_Unwind_Resume
.L96:
.LBE102:
.LBE101:
	.loc 3 413 23 discriminator 5
	movq	%rax, %rbx
	leaq	-128(%rbp), %rax
	movq	%rax, %rcx
	call	_ZNSt7__cxx1112basic_stringIcSt11char_traitsIcESaIcEED1Ev
	jmp	.L90
.L95:
.LBB104:
.LBB105:
.LBB106:
	.loc 5 182 39
	movq	%rax, %rbx
.L90:
	leaq	-81(%rbp), %rax
	movq	%rax, %rcx
	call	_ZNSt15__new_allocatorIcED2Ev
.LBE106:
	nop
	movq	%rbx, %rax
	movq	%rax, %rcx
	call	_Unwind_Resume
.L98:
.LBE105:
.LBE104:
	.loc 3 431 23 discriminator 5
	movq	%rax, %rbx
	leaq	-80(%rbp), %rax
	movq	%rax, %rcx
	call	_ZNSt7__cxx1112basic_stringIcSt11char_traitsIcESaIcEED1Ev
	jmp	.L92
.L97:
.LBB107:
.LBB108:
.LBB109:
	.loc 5 182 39
	movq	%rax, %rbx
.L92:
	leaq	-41(%rbp), %rax
	movq	%rax, %rcx
	call	_ZNSt15__new_allocatorIcED2Ev
.LBE109:
	nop
	movq	%rbx, %rax
	movq	%rax, %rcx
	call	_Unwind_Resume
	nop
.LEHE9:
.L99:
.LBE108:
.LBE107:
	.loc 3 432 1
	addq	$216, %rsp
	popq	%rbx
	.cfi_restore 3
	popq	%rbp
	.cfi_restore 6
	.cfi_def_cfa 7, -200
	ret
	.cfi_endproc
.LFE8662:
	.seh_handler	__gxx_personality_seh0, @unwind, @except
	.seh_handlerdata
.LLSDA8662:
	.byte	0xff
	.byte	0xff
	.byte	0x1
	.uleb128 .LLSDACSE8662-.LLSDACSB8662
.LLSDACSB8662:
	.uleb128 .LEHB0-.LFB8662
	.uleb128 .LEHE0-.LEHB0
	.uleb128 0
	.uleb128 0
	.uleb128 .LEHB1-.LFB8662
	.uleb128 .LEHE1-.LEHB1
	.uleb128 .L93-.LFB8662
	.uleb128 0
	.uleb128 .LEHB2-.LFB8662
	.uleb128 .LEHE2-.LEHB2
	.uleb128 .L94-.LFB8662
	.uleb128 0
	.uleb128 .LEHB3-.LFB8662
	.uleb128 .LEHE3-.LEHB3
	.uleb128 0
	.uleb128 0
	.uleb128 .LEHB4-.LFB8662
	.uleb128 .LEHE4-.LEHB4
	.uleb128 .L95-.LFB8662
	.uleb128 0
	.uleb128 .LEHB5-.LFB8662
	.uleb128 .LEHE5-.LEHB5
	.uleb128 .L96-.LFB8662
	.uleb128 0
	.uleb128 .LEHB6-.LFB8662
	.uleb128 .LEHE6-.LEHB6
	.uleb128 0
	.uleb128 0
	.uleb128 .LEHB7-.LFB8662
	.uleb128 .LEHE7-.LEHB7
	.uleb128 .L97-.LFB8662
	.uleb128 0
	.uleb128 .LEHB8-.LFB8662
	.uleb128 .LEHE8-.LEHB8
	.uleb128 .L98-.LFB8662
	.uleb128 0
	.uleb128 .LEHB9-.LFB8662
	.uleb128 .LEHE9-.LEHB9
	.uleb128 0
	.uleb128 0
.LLSDACSE8662:
	.text
	.seh_endproc
	.globl	_Z20autoSortTestForArrayPFPiRS_iEPFvS0_iEi
	.def	_Z20autoSortTestForArrayPFPiRS_iEPFvS0_iEi;	.scl	2;	.type	32;	.endef
	.seh_proc	_Z20autoSortTestForArrayPFPiRS_iEPFvS0_iEi
_Z20autoSortTestForArrayPFPiRS_iEPFvS0_iEi:
.LFB8663:
	.loc 3 435 1
	.cfi_startproc
	pushq	%rbp
	.seh_pushreg	%rbp
	.cfi_def_cfa_offset 16
	.cfi_offset 6, -16
	pushq	%rbx
	.seh_pushreg	%rbx
	.cfi_def_cfa_offset 24
	.cfi_offset 3, -24
	subq	$56, %rsp
	.seh_stackalloc	56
	.cfi_def_cfa_offset 80
	leaq	48(%rsp), %rbp
	.seh_setframe	%rbp, 48
	.cfi_def_cfa 6, 32
	.seh_endprologue
	movq	%rcx, 32(%rbp)
	movq	%rdx, 40(%rbp)
	movl	%r8d, 48(%rbp)
	.loc 3 436 30
	movl	48(%rbp), %eax
	movslq	%eax, %rbx
	.loc 3 436 37
	movabsq	$2305843009213693950, %rax
	cmpq	%rbx, %rax
	jb	.L101
	.loc 3 436 37 is_stmt 0 discriminator 1
	leaq	0(,%rbx,4), %rax
	.loc 3 436 37 discriminator 3
	movq	%rax, %rcx
	call	_Znay
	movq	%rax, %rcx
	.loc 3 436 37 discriminator 4
	movq	%rcx, %rdx
	leaq	-1(%rbx), %rax
	.loc 3 436 37
	jmp	.L103
.L101:
	.loc 3 436 37 discriminator 2
	call	__cxa_throw_bad_array_new_length
.L104:
	.loc 3 436 37 discriminator 7
	movl	$0, (%rdx)
	subq	$1, %rax
	addq	$4, %rdx
.L103:
	.loc 3 436 37 discriminator 5
	testq	%rax, %rax
	jns	.L104
	.loc 3 436 37 discriminator 8
	movq	%rcx, -8(%rbp)
	.loc 3 437 9 is_stmt 1
	movq	40(%rbp), %r8
	movl	48(%rbp), %edx
	leaq	-8(%rbp), %rax
	movq	%rax, %rcx
	call	*%r8
.LVL2:
	.loc 3 438 15
	movq	$0, -16(%rbp)
	.loc 3 439 26
	leaq	-16(%rbp), %r8
	movl	48(%rbp), %ecx
	leaq	-8(%rbp), %rdx
	movq	32(%rbp), %rax
	movq	%r8, %r9
	movl	%ecx, %r8d
	movq	%rax, %rcx
	call	_Z9ArraySortPFPiRS_iES0_iRx
	.loc 3 439 15 discriminator 1
	movq	%rax, -8(%rbp)
	.loc 3 440 5
	movq	-8(%rbp), %rax
	testq	%rax, %rax
	je	.L105
	.loc 3 440 14 discriminator 1
	movq	-8(%rbp), %rax
	movq	%rax, %rcx
	call	_ZdaPv
.L105:
	.loc 3 441 15
	movq	$0, -8(%rbp)
	.loc 3 442 12
	movq	-16(%rbp), %rax
	.loc 3 443 1
	addq	$56, %rsp
	popq	%rbx
	.cfi_restore 3
	popq	%rbp
	.cfi_restore 6
	.cfi_def_cfa 7, -40
	ret
	.cfi_endproc
.LFE8663:
	.seh_endproc
	.section	.text$_ZNKSt6chrono10time_pointINS_3_V212system_clockENS_8durationIxSt5ratioILx1ELx1000000000EEEEE16time_since_epochEv,"x"
	.linkonce discard
	.align 2
	.globl	_ZNKSt6chrono10time_pointINS_3_V212system_clockENS_8durationIxSt5ratioILx1ELx1000000000EEEEE16time_since_epochEv
	.def	_ZNKSt6chrono10time_pointINS_3_V212system_clockENS_8durationIxSt5ratioILx1ELx1000000000EEEEE16time_since_epochEv;	.scl	2;	.type	32;	.endef
	.seh_proc	_ZNKSt6chrono10time_pointINS_3_V212system_clockENS_8durationIxSt5ratioILx1ELx1000000000EEEEE16time_since_epochEv
_ZNKSt6chrono10time_pointINS_3_V212system_clockENS_8durationIxSt5ratioILx1ELx1000000000EEEEE16time_since_epochEv:
.LFB8664:
	.loc 1 949 2
	.cfi_startproc
	pushq	%rbp
	.seh_pushreg	%rbp
	.cfi_def_cfa_offset 16
	.cfi_offset 6, -16
	movq	%rsp, %rbp
	.seh_setframe	%rbp, 0
	.cfi_def_cfa_register 6
	.seh_endprologue
	movq	%rcx, 16(%rbp)
	.loc 1 950 11
	movq	16(%rbp), %rax
	movq	(%rax), %rax
	.loc 1 950 16
	popq	%rbp
	.cfi_restore 6
	.cfi_def_cfa 7, 8
	ret
	.cfi_endproc
.LFE8664:
	.seh_endproc
	.section	.text$_ZNSt7__cxx1112basic_stringIcSt11char_traitsIcESaIcEE12_Alloc_hiderD1Ev,"x"
	.linkonce discard
	.align 2
	.globl	_ZNSt7__cxx1112basic_stringIcSt11char_traitsIcESaIcEE12_Alloc_hiderD1Ev
	.def	_ZNSt7__cxx1112basic_stringIcSt11char_traitsIcESaIcEE12_Alloc_hiderD1Ev;	.scl	2;	.type	32;	.endef
	.seh_proc	_ZNSt7__cxx1112basic_stringIcSt11char_traitsIcESaIcEE12_Alloc_hiderD1Ev
_ZNSt7__cxx1112basic_stringIcSt11char_traitsIcESaIcEE12_Alloc_hiderD1Ev:
.LFB8791:
	.file 6 "C:/mingw64/include/c++/14.2.0/bits/basic_string.h"
	.loc 6 186 14
	.cfi_startproc
	pushq	%rbp
	.seh_pushreg	%rbp
	.cfi_def_cfa_offset 16
	.cfi_offset 6, -16
	movq	%rsp, %rbp
	.seh_setframe	%rbp, 0
	.cfi_def_cfa_register 6
	subq	$48, %rsp
	.seh_stackalloc	48
	.seh_endprologue
	movq	%rcx, 16(%rbp)
	movq	16(%rbp), %rax
	movq	%rax, -8(%rbp)
.LBB110:
.LBB111:
.LBB112:
.LBB113:
	.loc 5 182 39
	movq	-8(%rbp), %rax
	movq	%rax, %rcx
	call	_ZNSt15__new_allocatorIcED2Ev
.LBE113:
	nop
.LBE112:
.LBE111:
.LBE110:
	.loc 6 186 14
	nop
	addq	$48, %rsp
	popq	%rbp
	.cfi_restore 6
	.cfi_def_cfa 7, 8
	ret
	.cfi_endproc
.LFE8791:
	.seh_endproc
	.section	.text$_ZNSt6chronomiINS_3_V212system_clockENS_8durationIxSt5ratioILx1ELx1000000000EEEES6_EENSt11common_typeIJT0_T1_EE4typeERKNS_10time_pointIT_S8_EERKNSC_ISD_S9_EE,"x"
	.linkonce discard
	.globl	_ZNSt6chronomiINS_3_V212system_clockENS_8durationIxSt5ratioILx1ELx1000000000EEEES6_EENSt11common_typeIJT0_T1_EE4typeERKNS_10time_pointIT_S8_EERKNSC_ISD_S9_EE
	.def	_ZNSt6chronomiINS_3_V212system_clockENS_8durationIxSt5ratioILx1ELx1000000000EEEES6_EENSt11common_typeIJT0_T1_EE4typeERKNS_10time_pointIT_S8_EERKNSC_ISD_S9_EE;	.scl	2;	.type	32;	.endef
	.seh_proc	_ZNSt6chronomiINS_3_V212system_clockENS_8durationIxSt5ratioILx1ELx1000000000EEEES6_EENSt11common_typeIJT0_T1_EE4typeERKNS_10time_pointIT_S8_EERKNSC_ISD_S9_EE
_ZNSt6chronomiINS_3_V212system_clockENS_8durationIxSt5ratioILx1ELx1000000000EEEES6_EENSt11common_typeIJT0_T1_EE4typeERKNS_10time_pointIT_S8_EERKNSC_ISD_S9_EE:
.LFB8983:
	.loc 1 1141 7
	.cfi_startproc
	pushq	%rbp
	.seh_pushreg	%rbp
	.cfi_def_cfa_offset 16
	.cfi_offset 6, -16
	movq	%rsp, %rbp
	.seh_setframe	%rbp, 0
	.cfi_def_cfa_register 6
	subq	$48, %rsp
	.seh_stackalloc	48
	.seh_endprologue
	movq	%rcx, 16(%rbp)
	movq	%rdx, 24(%rbp)
	.loc 1 1143 65
	movq	24(%rbp), %rax
	movq	%rax, %rcx
	call	_ZNKSt6chrono10time_pointINS_3_V212system_clockENS_8durationIxSt5ratioILx1ELx1000000000EEEEE16time_since_epochEv
	movq	%rax, -16(%rbp)
	.loc 1 1143 38 discriminator 1
	movq	16(%rbp), %rax
	movq	%rax, %rcx
	call	_ZNKSt6chrono10time_pointINS_3_V212system_clockENS_8durationIxSt5ratioILx1ELx1000000000EEEEE16time_since_epochEv
	movq	%rax, -8(%rbp)
	.loc 1 1143 41 discriminator 2
	leaq	-16(%rbp), %rdx
	leaq	-8(%rbp), %rax
	movq	%rax, %rcx
	call	_ZNSt6chronomiIxSt5ratioILx1ELx1000000000EExS2_EENSt11common_typeIJNS_8durationIT_T0_EENS4_IT1_T2_EEEE4typeERKS7_RKSA_
	.loc 1 1143 69
	addq	$48, %rsp
	popq	%rbp
	.cfi_restore 6
	.cfi_def_cfa 7, 8
	ret
	.cfi_endproc
.LFE8983:
	.seh_endproc
	.section	.text$_ZNSt6chrono13duration_castINS_8durationIxSt5ratioILx1ELx1000000EEEExS2_ILx1ELx1000000000EEEENSt9enable_ifIXsrNS_13__is_durationIT_EE5valueES8_E4typeERKNS1_IT0_T1_EE,"x"
	.linkonce discard
	.globl	_ZNSt6chrono13duration_castINS_8durationIxSt5ratioILx1ELx1000000EEEExS2_ILx1ELx1000000000EEEENSt9enable_ifIXsrNS_13__is_durationIT_EE5valueES8_E4typeERKNS1_IT0_T1_EE
	.def	_ZNSt6chrono13duration_castINS_8durationIxSt5ratioILx1ELx1000000EEEExS2_ILx1ELx1000000000EEEENSt9enable_ifIXsrNS_13__is_durationIT_EE5valueES8_E4typeERKNS1_IT0_T1_EE;	.scl	2;	.type	32;	.endef
	.seh_proc	_ZNSt6chrono13duration_castINS_8durationIxSt5ratioILx1ELx1000000EEEExS2_ILx1ELx1000000000EEEENSt9enable_ifIXsrNS_13__is_durationIT_EE5valueES8_E4typeERKNS1_IT0_T1_EE
_ZNSt6chrono13duration_castINS_8durationIxSt5ratioILx1ELx1000000EEEExS2_ILx1ELx1000000000EEEENSt9enable_ifIXsrNS_13__is_durationIT_EE5valueES8_E4typeERKNS1_IT0_T1_EE:
.LFB8984:
	.loc 1 275 7
	.cfi_startproc
	pushq	%rbp
	.seh_pushreg	%rbp
	.cfi_def_cfa_offset 16
	.cfi_offset 6, -16
	movq	%rsp, %rbp
	.seh_setframe	%rbp, 0
	.cfi_def_cfa_register 6
	subq	$32, %rsp
	.seh_stackalloc	32
	.seh_endprologue
	movq	%rcx, 16(%rbp)
.LBB114:
.LBB115:
	.loc 1 289 23
	movq	16(%rbp), %rax
	movq	%rax, %rcx
	call	_ZNSt6chrono20__duration_cast_implINS_8durationIxSt5ratioILx1ELx1000000EEEES2_ILx1ELx1000EExLb1ELb0EE6__castIxS2_ILx1ELx1000000000EEEES4_RKNS1_IT_T0_EE
.LBE115:
.LBE114:
	.loc 1 293 7
	addq	$32, %rsp
	popq	%rbp
	.cfi_restore 6
	.cfi_def_cfa 7, 8
	ret
	.cfi_endproc
.LFE8984:
	.seh_endproc
	.section	.text$_ZNKSt6chrono8durationIxSt5ratioILx1ELx1000000EEE5countEv,"x"
	.linkonce discard
	.align 2
	.globl	_ZNKSt6chrono8durationIxSt5ratioILx1ELx1000000EEE5countEv
	.def	_ZNKSt6chrono8durationIxSt5ratioILx1ELx1000000EEE5countEv;	.scl	2;	.type	32;	.endef
	.seh_proc	_ZNKSt6chrono8durationIxSt5ratioILx1ELx1000000EEE5countEv
_ZNKSt6chrono8durationIxSt5ratioILx1ELx1000000EEE5countEv:
.LFB8986:
	.loc 1 589 2
	.cfi_startproc
	pushq	%rbp
	.seh_pushreg	%rbp
	.cfi_def_cfa_offset 16
	.cfi_offset 6, -16
	movq	%rsp, %rbp
	.seh_setframe	%rbp, 0
	.cfi_def_cfa_register 6
	.seh_endprologue
	movq	%rcx, 16(%rbp)
	.loc 1 590 11
	movq	16(%rbp), %rax
	movq	(%rax), %rax
	.loc 1 590 16
	popq	%rbp
	.cfi_restore 6
	.cfi_def_cfa 7, 8
	ret
	.cfi_endproc
.LFE8986:
	.seh_endproc
	.section	.text$_ZSt4moveIRiEONSt16remove_referenceIT_E4typeEOS2_,"x"
	.linkonce discard
	.globl	_ZSt4moveIRiEONSt16remove_referenceIT_E4typeEOS2_
	.def	_ZSt4moveIRiEONSt16remove_referenceIT_E4typeEOS2_;	.scl	2;	.type	32;	.endef
	.seh_proc	_ZSt4moveIRiEONSt16remove_referenceIT_E4typeEOS2_
_ZSt4moveIRiEONSt16remove_referenceIT_E4typeEOS2_:
.LFB8988:
	.file 7 "C:/mingw64/include/c++/14.2.0/bits/move.h"
	.loc 7 126 5
	.cfi_startproc
	pushq	%rbp
	.seh_pushreg	%rbp
	.cfi_def_cfa_offset 16
	.cfi_offset 6, -16
	movq	%rsp, %rbp
	.seh_setframe	%rbp, 0
	.cfi_def_cfa_register 6
	.seh_endprologue
	movq	%rcx, 16(%rbp)
	.loc 7 127 74
	movq	16(%rbp), %rax
	.loc 7 127 77
	popq	%rbp
	.cfi_restore 6
	.cfi_def_cfa 7, 8
	ret
	.cfi_endproc
.LFE8988:
	.seh_endproc
	.section	.text$_ZSt4swapIiENSt9enable_ifIXsrSt6__and_IJSt6__not_ISt15__is_tuple_likeIT_EESt21is_move_constructibleIS4_ESt18is_move_assignableIS4_EEE5valueEvE4typeERS4_SE_,"x"
	.linkonce discard
	.globl	_ZSt4swapIiENSt9enable_ifIXsrSt6__and_IJSt6__not_ISt15__is_tuple_likeIT_EESt21is_move_constructibleIS4_ESt18is_move_assignableIS4_EEE5valueEvE4typeERS4_SE_
	.def	_ZSt4swapIiENSt9enable_ifIXsrSt6__and_IJSt6__not_ISt15__is_tuple_likeIT_EESt21is_move_constructibleIS4_ESt18is_move_assignableIS4_EEE5valueEvE4typeERS4_SE_;	.scl	2;	.type	32;	.endef
	.seh_proc	_ZSt4swapIiENSt9enable_ifIXsrSt6__and_IJSt6__not_ISt15__is_tuple_likeIT_EESt21is_move_constructibleIS4_ESt18is_move_assignableIS4_EEE5valueEvE4typeERS4_SE_
_ZSt4swapIiENSt9enable_ifIXsrSt6__and_IJSt6__not_ISt15__is_tuple_likeIT_EESt21is_move_constructibleIS4_ESt18is_move_assignableIS4_EEE5valueEvE4typeERS4_SE_:
.LFB8987:
	.loc 7 213 5
	.cfi_startproc
	pushq	%rbp
	.seh_pushreg	%rbp
	.cfi_def_cfa_offset 16
	.cfi_offset 6, -16
	movq	%rsp, %rbp
	.seh_setframe	%rbp, 0
	.cfi_def_cfa_register 6
	subq	$48, %rsp
	.seh_stackalloc	48
	.seh_endprologue
	movq	%rcx, 16(%rbp)
	movq	%rdx, 24(%rbp)
	.loc 7 221 19
	movq	16(%rbp), %rax
	movq	%rax, %rcx
	call	_ZSt4moveIRiEONSt16remove_referenceIT_E4typeEOS2_
	.loc 7 221 11 discriminator 1
	movl	(%rax), %eax
	movl	%eax, -4(%rbp)
	.loc 7 222 13
	movq	24(%rbp), %rax
	movq	%rax, %rcx
	call	_ZSt4moveIRiEONSt16remove_referenceIT_E4typeEOS2_
	.loc 7 222 11 discriminator 1
	movl	(%rax), %edx
	movq	16(%rbp), %rax
	movl	%edx, (%rax)
	.loc 7 223 13
	leaq	-4(%rbp), %rax
	movq	%rax, %rcx
	call	_ZSt4moveIRiEONSt16remove_referenceIT_E4typeEOS2_
	.loc 7 223 11 discriminator 1
	movl	(%rax), %edx
	movq	24(%rbp), %rax
	movl	%edx, (%rax)
	.loc 7 224 5
	nop
	addq	$48, %rsp
	popq	%rbp
	.cfi_restore 6
	.cfi_def_cfa 7, 8
	ret
	.cfi_endproc
.LFE8987:
	.seh_endproc
	.section	.text$_ZNSt7__cxx1112basic_stringIcSt11char_traitsIcESaIcEEC1IS3_EEycRKS3_,"x"
	.linkonce discard
	.align 2
	.globl	_ZNSt7__cxx1112basic_stringIcSt11char_traitsIcESaIcEEC1IS3_EEycRKS3_
	.def	_ZNSt7__cxx1112basic_stringIcSt11char_traitsIcESaIcEEC1IS3_EEycRKS3_;	.scl	2;	.type	32;	.endef
	.seh_proc	_ZNSt7__cxx1112basic_stringIcSt11char_traitsIcESaIcEEC1IS3_EEycRKS3_
_ZNSt7__cxx1112basic_stringIcSt11char_traitsIcESaIcEEC1IS3_EEycRKS3_:
.LFB8992:
	.loc 6 669 7
	.cfi_startproc
	pushq	%rbp
	.seh_pushreg	%rbp
	.cfi_def_cfa_offset 16
	.cfi_offset 6, -16
	pushq	%rbx
	.seh_pushreg	%rbx
	.cfi_def_cfa_offset 24
	.cfi_offset 3, -24
	subq	$40, %rsp
	.seh_stackalloc	40
	.cfi_def_cfa_offset 64
	leaq	32(%rsp), %rbp
	.seh_setframe	%rbp, 32
	.cfi_def_cfa 6, 32
	.seh_endprologue
	movq	%rcx, 32(%rbp)
	movq	%rdx, 40(%rbp)
	movl	%r8d, %eax
	movq	%r9, 56(%rbp)
	movb	%al, 48(%rbp)
.LBB116:
	.loc 6 670 9
	movq	32(%rbp), %rbx
	movq	32(%rbp), %rax
	movq	%rax, %rcx
	call	_ZNSt7__cxx1112basic_stringIcSt11char_traitsIcESaIcEE13_M_local_dataEv
	.loc 6 670 9 is_stmt 0 discriminator 1
	movq	56(%rbp), %rdx
	movq	%rdx, %r8
	movq	%rax, %rdx
	movq	%rbx, %rcx
	call	_ZNSt7__cxx1112basic_stringIcSt11char_traitsIcESaIcEE12_Alloc_hiderC1EPcRKS3_
	.loc 6 671 21 is_stmt 1
	movsbl	48(%rbp), %ecx
	movq	40(%rbp), %rdx
	movq	32(%rbp), %rax
	movl	%ecx, %r8d
	movq	%rax, %rcx
.LEHB10:
	call	_ZNSt7__cxx1112basic_stringIcSt11char_traitsIcESaIcEE12_M_constructEyc
.LEHE10:
.LBE116:
	.loc 6 671 33
	jmp	.L122
.L121:
.LBB117:
	.loc 6 671 33 is_stmt 0 discriminator 1
	movq	%rax, %rbx
	movq	32(%rbp), %rax
	movq	%rax, %rcx
	call	_ZNSt7__cxx1112basic_stringIcSt11char_traitsIcESaIcEE12_Alloc_hiderD1Ev
	movq	%rbx, %rax
	movq	%rax, %rcx
.LEHB11:
	call	_Unwind_Resume
	nop
.LEHE11:
.L122:
.LBE117:
	.loc 6 671 33
	addq	$40, %rsp
	popq	%rbx
	.cfi_restore 3
	popq	%rbp
	.cfi_restore 6
	.cfi_def_cfa 7, -24
	ret
	.cfi_endproc
.LFE8992:
	.seh_handler	__gxx_personality_seh0, @unwind, @except
	.seh_handlerdata
.LLSDA8992:
	.byte	0xff
	.byte	0xff
	.byte	0x1
	.uleb128 .LLSDACSE8992-.LLSDACSB8992
.LLSDACSB8992:
	.uleb128 .LEHB10-.LFB8992
	.uleb128 .LEHE10-.LEHB10
	.uleb128 .L121-.LFB8992
	.uleb128 0
	.uleb128 .LEHB11-.LFB8992
	.uleb128 .LEHE11-.LEHB11
	.uleb128 0
	.uleb128 0
.LLSDACSE8992:
	.section	.text$_ZNSt7__cxx1112basic_stringIcSt11char_traitsIcESaIcEEC1IS3_EEycRKS3_,"x"
	.linkonce discard
	.seh_endproc
	.section	.text$_ZNSt15__new_allocatorIcED2Ev,"x"
	.linkonce discard
	.align 2
	.globl	_ZNSt15__new_allocatorIcED2Ev
	.def	_ZNSt15__new_allocatorIcED2Ev;	.scl	2;	.type	32;	.endef
	.seh_proc	_ZNSt15__new_allocatorIcED2Ev
_ZNSt15__new_allocatorIcED2Ev:
.LFB9060:
	.loc 4 104 7 is_stmt 1
	.cfi_startproc
	pushq	%rbp
	.seh_pushreg	%rbp
	.cfi_def_cfa_offset 16
	.cfi_offset 6, -16
	movq	%rsp, %rbp
	.seh_setframe	%rbp, 0
	.cfi_def_cfa_register 6
	.seh_endprologue
	movq	%rcx, 16(%rbp)
	.loc 4 104 50
	nop
	popq	%rbp
	.cfi_restore 6
	.cfi_def_cfa 7, 8
	ret
	.cfi_endproc
.LFE9060:
	.seh_endproc
	.section	.text$_ZNSt6chronomiIxSt5ratioILx1ELx1000000000EExS2_EENSt11common_typeIJNS_8durationIT_T0_EENS4_IT1_T2_EEEE4typeERKS7_RKSA_,"x"
	.linkonce discard
	.globl	_ZNSt6chronomiIxSt5ratioILx1ELx1000000000EExS2_EENSt11common_typeIJNS_8durationIT_T0_EENS4_IT1_T2_EEEE4typeERKS7_RKSA_
	.def	_ZNSt6chronomiIxSt5ratioILx1ELx1000000000EExS2_EENSt11common_typeIJNS_8durationIT_T0_EENS4_IT1_T2_EEEE4typeERKS7_RKSA_;	.scl	2;	.type	32;	.endef
	.seh_proc	_ZNSt6chronomiIxSt5ratioILx1ELx1000000000EExS2_EENSt11common_typeIJNS_8durationIT_T0_EENS4_IT1_T2_EEEE4typeERKS7_RKSA_
_ZNSt6chronomiIxSt5ratioILx1ELx1000000000EExS2_EENSt11common_typeIJNS_8durationIT_T0_EENS4_IT1_T2_EEEE4typeERKS7_RKSA_:
.LFB9121:
	.loc 1 710 7
	.cfi_startproc
	pushq	%rbp
	.seh_pushreg	%rbp
	.cfi_def_cfa_offset 16
	.cfi_offset 6, -16
	pushq	%rbx
	.seh_pushreg	%rbx
	.cfi_def_cfa_offset 24
	.cfi_offset 3, -24
	subq	$72, %rsp
	.seh_stackalloc	72
	.cfi_def_cfa_offset 96
	leaq	64(%rsp), %rbp
	.seh_setframe	%rbp, 64
	.cfi_def_cfa 6, 32
	.seh_endprologue
	movq	%rcx, 32(%rbp)
	movq	%rdx, 40(%rbp)
	.loc 1 716 14
	movq	32(%rbp), %rax
	movq	(%rax), %rax
	movq	%rax, -16(%rbp)
	.loc 1 716 31
	leaq	-16(%rbp), %rax
	movq	%rax, %rcx
	call	_ZNKSt6chrono8durationIxSt5ratioILx1ELx1000000000EEE5countEv
	movq	%rax, %rbx
	.loc 1 716 36 discriminator 1
	movq	40(%rbp), %rax
	movq	(%rax), %rax
	movq	%rax, -8(%rbp)
	.loc 1 716 53 discriminator 1
	leaq	-8(%rbp), %rax
	movq	%rax, %rcx
	call	_ZNKSt6chrono8durationIxSt5ratioILx1ELx1000000000EEE5countEv
	.loc 1 716 34 discriminator 2
	subq	%rax, %rbx
	movq	%rbx, %rdx
	movq	%rdx, -24(%rbp)
	.loc 1 716 9 discriminator 2
	leaq	-24(%rbp), %rdx
	leaq	-32(%rbp), %rax
	movq	%rax, %rcx
	call	_ZNSt6chrono8durationIxSt5ratioILx1ELx1000000000EEEC1IxvEERKT_
	.loc 1 716 55 discriminator 3
	movq	-32(%rbp), %rax
	.loc 1 717 7
	addq	$72, %rsp
	popq	%rbx
	.cfi_restore 3
	popq	%rbp
	.cfi_restore 6
	.cfi_def_cfa 7, -56
	ret
	.cfi_endproc
.LFE9121:
	.seh_endproc
	.section	.text$_ZNSt6chrono20__duration_cast_implINS_8durationIxSt5ratioILx1ELx1000000EEEES2_ILx1ELx1000EExLb1ELb0EE6__castIxS2_ILx1ELx1000000000EEEES4_RKNS1_IT_T0_EE,"x"
	.linkonce discard
	.globl	_ZNSt6chrono20__duration_cast_implINS_8durationIxSt5ratioILx1ELx1000000EEEES2_ILx1ELx1000EExLb1ELb0EE6__castIxS2_ILx1ELx1000000000EEEES4_RKNS1_IT_T0_EE
	.def	_ZNSt6chrono20__duration_cast_implINS_8durationIxSt5ratioILx1ELx1000000EEEES2_ILx1ELx1000EExLb1ELb0EE6__castIxS2_ILx1ELx1000000000EEEES4_RKNS1_IT_T0_EE;	.scl	2;	.type	32;	.endef
	.seh_proc	_ZNSt6chrono20__duration_cast_implINS_8durationIxSt5ratioILx1ELx1000000EEEES2_ILx1ELx1000EExLb1ELb0EE6__castIxS2_ILx1ELx1000000000EEEES4_RKNS1_IT_T0_EE
_ZNSt6chrono20__duration_cast_implINS_8durationIxSt5ratioILx1ELx1000000EEEES2_ILx1ELx1000EExLb1ELb0EE6__castIxS2_ILx1ELx1000000000EEEES4_RKNS1_IT_T0_EE:
.LFB9122:
	.loc 1 210 4
	.cfi_startproc
	pushq	%rbp
	.seh_pushreg	%rbp
	.cfi_def_cfa_offset 16
	.cfi_offset 6, -16
	movq	%rsp, %rbp
	.seh_setframe	%rbp, 0
	.cfi_def_cfa_register 6
	subq	$48, %rsp
	.seh_stackalloc	48
	.seh_endprologue
	movq	%rcx, 16(%rbp)
	.loc 1 214 34
	movq	16(%rbp), %rax
	movq	%rax, %rcx
	call	_ZNKSt6chrono8durationIxSt5ratioILx1ELx1000000000EEE5countEv
	movq	%rax, %rcx
	.loc 1 214 38 discriminator 1
	movabsq	$2361183241434822607, %rdx
	movq	%rcx, %rax
	imulq	%rdx
	movq	%rdx, %rax
	sarq	$7, %rax
	sarq	$63, %rcx
	movq	%rcx, %rdx
	subq	%rdx, %rax
	.loc 1 213 20
	movq	%rax, -8(%rbp)
	.loc 1 213 13
	leaq	-8(%rbp), %rdx
	leaq	-16(%rbp), %rax
	movq	%rax, %rcx
	call	_ZNSt6chrono8durationIxSt5ratioILx1ELx1000000EEEC1IxvEERKT_
	.loc 1 214 67
	movq	-16(%rbp), %rax
	.loc 1 215 4
	addq	$48, %rsp
	popq	%rbp
	.cfi_restore 6
	.cfi_def_cfa 7, 8
	ret
	.cfi_endproc
.LFE9122:
	.seh_endproc
	.section	.text$_ZNSt6chrono8durationIxSt5ratioILx1ELx1000000EEEC1IxvEERKT_,"x"
	.linkonce discard
	.align 2
	.globl	_ZNSt6chrono8durationIxSt5ratioILx1ELx1000000EEEC1IxvEERKT_
	.def	_ZNSt6chrono8durationIxSt5ratioILx1ELx1000000EEEC1IxvEERKT_;	.scl	2;	.type	32;	.endef
	.seh_proc	_ZNSt6chrono8durationIxSt5ratioILx1ELx1000000EEEC1IxvEERKT_
_ZNSt6chrono8durationIxSt5ratioILx1ELx1000000EEEC1IxvEERKT_:
.LFB9188:
	.loc 1 573 23
	.cfi_startproc
	pushq	%rbp
	.seh_pushreg	%rbp
	.cfi_def_cfa_offset 16
	.cfi_offset 6, -16
	movq	%rsp, %rbp
	.seh_setframe	%rbp, 0
	.cfi_def_cfa_register 6
	.seh_endprologue
	movq	%rcx, 16(%rbp)
	movq	%rdx, 24(%rbp)
.LBB118:
	.loc 1 574 10
	movq	24(%rbp), %rax
	movq	(%rax), %rdx
	.loc 1 574 6
	movq	16(%rbp), %rax
	movq	%rdx, (%rax)
.LBE118:
	.loc 1 574 37
	nop
	popq	%rbp
	.cfi_restore 6
	.cfi_def_cfa 7, 8
	ret
	.cfi_endproc
.LFE9188:
	.seh_endproc
	.section .rdata,"dr"
_ZNSt8__detail30__integer_to_chars_is_unsignedIjEE:
	.byte	1
_ZNSt8__detail30__integer_to_chars_is_unsignedImEE:
	.byte	1
_ZNSt8__detail30__integer_to_chars_is_unsignedIyEE:
	.byte	1
_ZSt12__is_ratio_vISt5ratioILx1ELx1000000000EEE:
	.byte	1
_ZSt12__is_ratio_vISt5ratioILx1ELx1EEE:
	.byte	1
_ZSt12__is_ratio_vISt5ratioILx1000000ELx1EEE:
	.byte	1
_ZSt12__is_ratio_vISt5ratioILx1000000000ELx1EEE:
	.byte	1
	.text
.Letext0:
	.file 8 "C:/mingw64/include/c++/14.2.0/type_traits"
	.file 9 "C:/mingw64/include/c++/14.2.0/cstdint"
	.file 10 "C:/mingw64/include/c++/14.2.0/ctime"
	.file 11 "C:/mingw64/include/c++/14.2.0/x86_64-w64-mingw32/bits/c++config.h"
	.file 12 "C:/mingw64/include/c++/14.2.0/ratio"
	.file 13 "C:/mingw64/include/c++/14.2.0/cstddef"
	.file 14 "C:/mingw64/include/c++/14.2.0/cstdio"
	.file 15 "C:/mingw64/include/c++/14.2.0/cstdlib"
	.file 16 "C:/mingw64/include/c++/14.2.0/cwchar"
	.file 17 "C:/mingw64/include/c++/14.2.0/clocale"
	.file 18 "C:/mingw64/include/c++/14.2.0/bits/char_traits.h"
	.file 19 "C:/mingw64/include/c++/14.2.0/debug/debug.h"
	.file 20 "C:/mingw64/include/c++/14.2.0/string_view"
	.file 21 "C:/mingw64/include/c++/14.2.0/bits/alloc_traits.h"
	.file 22 "C:/mingw64/include/c++/14.2.0/initializer_list"
	.file 23 "C:/mingw64/include/c++/14.2.0/bits/stl_iterator_base_types.h"
	.file 24 "C:/mingw64/include/c++/14.2.0/bits/memory_resource.h"
	.file 25 "C:/mingw64/include/c++/14.2.0/bits/exception_ptr.h"
	.file 26 "C:/mingw64/include/c++/14.2.0/system_error"
	.file 27 "C:/mingw64/include/c++/14.2.0/cwctype"
	.file 28 "C:/mingw64/include/c++/14.2.0/bits/ostream.tcc"
	.file 29 "C:/mingw64/include/c++/14.2.0/ostream"
	.file 30 "C:/mingw64/include/c++/14.2.0/istream"
	.file 31 "C:/mingw64/include/c++/14.2.0/iosfwd"
	.file 32 "C:/mingw64/include/c++/14.2.0/iostream"
	.file 33 "C:/mingw64/include/c++/14.2.0/bits/std_abs.h"
	.file 34 "C:/mingw64/include/c++/14.2.0/bits/charconv.h"
	.file 35 "C:/mingw64/x86_64-w64-mingw32/include/corecrt.h"
	.file 36 "C:/mingw64/lib/gcc/x86_64-w64-mingw32/14.2.0/include/stddef.h"
	.file 37 "C:/mingw64/x86_64-w64-mingw32/include/stdint.h"
	.file 38 "C:/mingw64/x86_64-w64-mingw32/include/sys/timeb.h"
	.file 39 "C:/mingw64/x86_64-w64-mingw32/include/time.h"
	.file 40 "C:/mingw64/include/c++/14.2.0/bits/predefined_ops.h"
	.file 41 "C:/mingw64/include/c++/14.2.0/ext/alloc_traits.h"
	.file 42 "C:/mingw64/include/c++/14.2.0/bits/stl_iterator.h"
	.file 43 "C:/mingw64/x86_64-w64-mingw32/include/stdio.h"
	.file 44 "C:/mingw64/x86_64-w64-mingw32/include/stdlib.h"
	.file 45 "C:/mingw64/x86_64-w64-mingw32/include/wchar.h"
	.file 46 "C:/mingw64/x86_64-w64-mingw32/include/swprintf.inl"
	.file 47 "C:/mingw64/x86_64-w64-mingw32/include/locale.h"
	.file 48 "C:/mingw64/x86_64-w64-mingw32/include/wctype.h"
	.file 49 "C:/mingw64/x86_64-w64-mingw32/include/minwindef.h"
	.file 50 "C:/mingw64/include/c++/14.2.0/stdlib.h"
	.file 51 "C:/mingw64/include/c++/14.2.0/new"
	.file 52 "C:/mingw64/x86_64-w64-mingw32/include/conio.h"
	.file 53 "C:/mingw64/x86_64-w64-mingw32/include/synchapi.h"
	.section	.rdata$.refptr._ZSt4endlIcSt11char_traitsIcEERSt13basic_ostreamIT_T0_ES6_, "dr"
	.globl	.refptr._ZSt4endlIcSt11char_traitsIcEERSt13basic_ostreamIT_T0_ES6_
	.linkonce	discard
.refptr._ZSt4endlIcSt11char_traitsIcEERSt13basic_ostreamIT_T0_ES6_:
	.quad	_ZSt4endlIcSt11char_traitsIcEERSt13basic_ostreamIT_T0_ES6_
	.section	.rdata$.refptr._ZSt3cin, "dr"
	.globl	.refptr._ZSt3cin
	.linkonce	discard
.refptr._ZSt3cin:
	.quad	_ZSt3cin
	.section	.rdata$.refptr._ZSt4cout, "dr"
	.globl	.refptr._ZSt4cout
	.linkonce	discard
.refptr._ZSt4cout:
	.quad	_ZSt4cout
