	.file	"lab8.cpp"
	.text
.Ltext0:
	.cfi_sections	.debug_frame
	.file 0 "D:/Code/University/algoritms" "D:/Code/University/algoritms/lab8/lab8.cpp"
	.section	.text$_ZNSt6chrono8durationIxSt5ratioILx1ELx1000000000EEEC1IxvEERKT_,"x"
	.linkonce discard
	.align 2
	.globl	_ZNSt6chrono8durationIxSt5ratioILx1ELx1000000000EEEC1IxvEERKT_
	.def	_ZNSt6chrono8durationIxSt5ratioILx1ELx1000000000EEEC1IxvEERKT_;	.scl	2;	.type	32;	.endef
	.seh_proc	_ZNSt6chrono8durationIxSt5ratioILx1ELx1000000000EEEC1IxvEERKT_
_ZNSt6chrono8durationIxSt5ratioILx1ELx1000000000EEEC1IxvEERKT_:
.LFB325:
	.file 1 "C:/mingw64/include/c++/14.2.0/bits/chrono.h"
	.loc 1 573 23
	.cfi_startproc
	pushq	%rbp
	.seh_pushreg	%rbp
	.cfi_def_cfa_offset 16
	.cfi_offset 6, -16
	movq	%rsp, %rbp
	.seh_setframe	%rbp, 0
	.cfi_def_cfa_register 6
	.seh_endprologue
	movq	%rcx, 16(%rbp)
	movq	%rdx, 24(%rbp)
.LBB97:
	.loc 1 574 10
	movq	24(%rbp), %rax
	movq	(%rax), %rdx
	.loc 1 574 6
	movq	16(%rbp), %rax
	movq	%rdx, (%rax)
.LBE97:
	.loc 1 574 37
	nop
	popq	%rbp
	.cfi_restore 6
	.cfi_def_cfa 7, 8
	ret
	.cfi_endproc
.LFE325:
	.seh_endproc
	.section	.text$_ZNKSt6chrono8durationIxSt5ratioILx1ELx1000000000EEE5countEv,"x"
	.linkonce discard
	.align 2
	.globl	_ZNKSt6chrono8durationIxSt5ratioILx1ELx1000000000EEE5countEv
	.def	_ZNKSt6chrono8durationIxSt5ratioILx1ELx1000000000EEE5countEv;	.scl	2;	.type	32;	.endef
	.seh_proc	_ZNKSt6chrono8durationIxSt5ratioILx1ELx1000000000EEE5countEv
_ZNKSt6chrono8durationIxSt5ratioILx1ELx1000000000EEE5countEv:
.LFB327:
	.loc 1 589 2
	.cfi_startproc
	pushq	%rbp
	.seh_pushreg	%rbp
	.cfi_def_cfa_offset 16
	.cfi_offset 6, -16
	movq	%rsp, %rbp
	.seh_setframe	%rbp, 0
	.cfi_def_cfa_register 6
	.seh_endprologue
	movq	%rcx, 16(%rbp)
	.loc 1 590 11
	movq	16(%rbp), %rax
	movq	(%rax), %rax
	.loc 1 590 16
	popq	%rbp
	.cfi_restore 6
	.cfi_def_cfa 7, 8
	ret
	.cfi_endproc
.LFE327:
	.seh_endproc
	.section	.text$_ZSt4setwi,"x"
	.linkonce discard
	.globl	_ZSt4setwi
	.def	_ZSt4setwi;	.scl	2;	.type	32;	.endef
	.seh_proc	_ZSt4setwi
_ZSt4setwi:
.LFB2812:
	.file 2 "C:/mingw64/include/c++/14.2.0/iomanip"
	.loc 2 233 3
	.cfi_startproc
	pushq	%rbp
	.seh_pushreg	%rbp
	.cfi_def_cfa_offset 16
	.cfi_offset 6, -16
	movq	%rsp, %rbp
	.seh_setframe	%rbp, 0
	.cfi_def_cfa_register 6
	.seh_endprologue
	movl	%ecx, 16(%rbp)
	.loc 2 233 18
	movl	16(%rbp), %eax
	.loc 2 233 21
	popq	%rbp
	.cfi_restore 6
	.cfi_def_cfa 7, 8
	ret
	.cfi_endproc
.LFE2812:
	.seh_endproc
	.globl	PRINT_MAX_SIZE
	.data
	.align 4
PRINT_MAX_SIZE:
	.long	10000
	.globl	TEST_STEP_SIZE
	.align 4
TEST_STEP_SIZE:
	.long	50
	.section .rdata,"dr"
.LC0:
	.ascii "cls\0"
	.align 8
.LC1:
	.ascii "Enter the size of list / array: \0"
	.align 8
.LC2:
	.ascii "Enter the type of filling list / array\12\0"
.LC3:
	.ascii "  1) Best case\12\0"
.LC4:
	.ascii "  2) Middle case\12\0"
.LC5:
	.ascii "  3) Bad case\12\0"
.LC6:
	.ascii "\12> \0"
.LC7:
	.ascii "\12List: \0"
.LC8:
	.ascii "Array: \0"
.LC9:
	.ascii "Enter the sort for list:\12\0"
.LC10:
	.ascii "  1) Bubble Sort\12\0"
.LC11:
	.ascii "  2) Selection Sort\12\0"
.LC12:
	.ascii "  3) Insertion Sort\12> \0"
.LC13:
	.ascii "Sorted list: \0"
.LC14:
	.ascii "Sort time: \0"
.LC15:
	.ascii "Enter the sort for array:\12\0"
.LC16:
	.ascii "Sorted array: \0"
	.align 8
.LC17:
	.ascii "Do you want to do auto test? (1=yes 0=no) : \0"
.LC18:
	.ascii "Enter the size of test: \0"
.LC19:
	.ascii "Go to start? (1=yes 0=no)\12> \0"
	.text
	.globl	main
	.def	main;	.scl	2;	.type	32;	.endef
	.seh_proc	main
main:
.LFB8647:
	.file 3 "D:/Code/University/algoritms/lab8/lab8.cpp"
	.loc 3 66 1
	.cfi_startproc
	pushq	%rbp
	.seh_pushreg	%rbp
	.cfi_def_cfa_offset 16
	.cfi_offset 6, -16
	pushq	%rbx
	.seh_pushreg	%rbx
	.cfi_def_cfa_offset 24
	.cfi_offset 3, -24
	subq	$88, %rsp
	.seh_stackalloc	88
	.cfi_def_cfa_offset 112
	leaq	80(%rsp), %rbp
	.seh_setframe	%rbp, 80
	.cfi_def_cfa 6, 32
	.seh_endprologue
	.loc 3 66 1
	call	__main
	.loc 3 67 9
	movl	$1, -4(%rbp)
	.loc 3 68 9
	movl	$1, -8(%rbp)
	.loc 3 69 9
	movl	$1, -12(%rbp)
	.loc 3 72 5
	jmp	.L7
.L29:
.LBB98:
	.loc 3 74 20
	leaq	.LC0(%rip), %rax
	movq	%rax, %rcx
	call	system
	.loc 3 75 22
	leaq	.LC1(%rip), %rax
	movq	%rax, %rdx
	movq	.refptr._ZSt4cout(%rip), %rax
	movq	%rax, %rcx
	call	_ZStlsISt11char_traitsIcEERSt13basic_ostreamIcT_ES5_PKc
	.loc 3 76 21
	leaq	-12(%rbp), %rax
	movq	%rax, %rdx
	movq	.refptr._ZSt3cin(%rip), %rax
	movq	%rax, %rcx
	call	_ZNSirsERi
	.loc 3 77 14
	movl	$500, %ecx
	movq	__imp_Sleep(%rip), %rax
	call	*%rax
.LVL0:
	.loc 3 78 20
	leaq	.LC0(%rip), %rax
	movq	%rax, %rcx
	call	system
	.loc 3 81 30
	movl	-12(%rbp), %eax
	movslq	%eax, %rbx
	.loc 3 81 36
	movabsq	$2305843009213693950, %rax
	cmpq	%rbx, %rax
	jb	.L8
	.loc 3 81 36 is_stmt 0 discriminator 1
	leaq	0(,%rbx,4), %rax
	.loc 3 81 36 discriminator 3
	movq	%rax, %rcx
	call	_Znay
	movq	%rax, %rcx
	.loc 3 81 36 discriminator 4
	movq	%rcx, %rdx
	leaq	-1(%rbx), %rax
	.loc 3 81 36
	jmp	.L10
.L8:
	.loc 3 81 36 discriminator 2
	call	__cxa_throw_bad_array_new_length
.L11:
	.loc 3 81 36 discriminator 7
	movl	$0, (%rdx)
	subq	$1, %rax
	addq	$4, %rdx
.L10:
	.loc 3 81 36 discriminator 5
	testq	%rax, %rax
	jns	.L11
	.loc 3 81 36 discriminator 8
	movq	%rcx, -40(%rbp)
	.loc 3 83 20 is_stmt 1
	leaq	.LC0(%rip), %rax
	movq	%rax, %rcx
	call	system
	.loc 3 84 22
	leaq	.LC2(%rip), %rax
	movq	%rax, %rdx
	movq	.refptr._ZSt4cout(%rip), %rax
	movq	%rax, %rcx
	call	_ZStlsISt11char_traitsIcEERSt13basic_ostreamIcT_ES5_PKc
	.loc 3 85 22
	leaq	.LC3(%rip), %rax
	movq	%rax, %rdx
	movq	.refptr._ZSt4cout(%rip), %rax
	movq	%rax, %rcx
	call	_ZStlsISt11char_traitsIcEERSt13basic_ostreamIcT_ES5_PKc
	.loc 3 86 22
	leaq	.LC4(%rip), %rax
	movq	%rax, %rdx
	movq	.refptr._ZSt4cout(%rip), %rax
	movq	%rax, %rcx
	call	_ZStlsISt11char_traitsIcEERSt13basic_ostreamIcT_ES5_PKc
	.loc 3 87 22
	leaq	.LC5(%rip), %rax
	movq	%rax, %rdx
	movq	.refptr._ZSt4cout(%rip), %rax
	movq	%rax, %rcx
	call	_ZStlsISt11char_traitsIcEERSt13basic_ostreamIcT_ES5_PKc
	.loc 3 88 22
	leaq	.LC6(%rip), %rax
	movq	%rax, %rdx
	movq	.refptr._ZSt4cout(%rip), %rax
	movq	%rax, %rcx
	call	_ZStlsISt11char_traitsIcEERSt13basic_ostreamIcT_ES5_PKc
	.loc 3 89 21
	leaq	-8(%rbp), %rax
	movq	%rax, %rdx
	movq	.refptr._ZSt3cin(%rip), %rax
	movq	%rax, %rcx
	call	_ZNSirsERi
	.loc 3 91 9
	movl	-8(%rbp), %eax
	cmpl	$3, %eax
	je	.L12
	cmpl	$3, %eax
	jg	.L13
	cmpl	$1, %eax
	je	.L14
	cmpl	$2, %eax
	je	.L15
	jmp	.L13
.L14:
	.loc 3 94 29
	movl	-12(%rbp), %edx
	leaq	-32(%rbp), %rax
	movq	%rax, %rcx
	call	_Z16FillListBestCaseRP4Nodei
	.loc 3 95 30
	movl	-12(%rbp), %edx
	leaq	-40(%rbp), %rax
	movq	%rax, %rcx
	call	_Z17FillArrayBestCaseRPii
	.loc 3 96 13
	jmp	.L13
.L15:
	.loc 3 98 31
	movl	-12(%rbp), %edx
	leaq	-32(%rbp), %rax
	movq	%rax, %rcx
	call	_Z18FillListMiddleCaseRP4Nodei
	.loc 3 99 32
	movl	-12(%rbp), %edx
	leaq	-40(%rbp), %rax
	movq	%rax, %rcx
	call	_Z19FillArrayMiddleCaseRPii
	.loc 3 100 13
	jmp	.L13
.L12:
	.loc 3 102 28
	movl	-12(%rbp), %edx
	leaq	-32(%rbp), %rax
	movq	%rax, %rcx
	call	_Z15FillListBadCaseRP4Nodei
	.loc 3 103 29
	movl	-12(%rbp), %edx
	leaq	-40(%rbp), %rax
	movq	%rax, %rcx
	call	_Z16FillArrayBadCaseRPii
	.loc 3 104 13
	nop
.L13:
	.loc 3 107 18
	movl	-12(%rbp), %edx
	movl	PRINT_MAX_SIZE(%rip), %eax
	.loc 3 107 9
	cmpl	%eax, %edx
	jg	.L16
	.loc 3 109 26
	leaq	.LC7(%rip), %rax
	movq	%rax, %rdx
	movq	.refptr._ZSt4cout(%rip), %rax
	movq	%rax, %rcx
	call	_ZStlsISt11char_traitsIcEERSt13basic_ostreamIcT_ES5_PKc
	.loc 3 110 22
	movq	-32(%rbp), %rax
	movq	%rax, %rcx
	call	_Z9PrintListP4Node
	.loc 3 111 26
	leaq	.LC8(%rip), %rax
	movq	%rax, %rdx
	movq	.refptr._ZSt4cout(%rip), %rax
	movq	%rax, %rcx
	call	_ZStlsISt11char_traitsIcEERSt13basic_ostreamIcT_ES5_PKc
	.loc 3 112 23
	movl	-12(%rbp), %edx
	movq	-40(%rbp), %rax
	movq	%rax, %rcx
	call	_Z10PrintArrayPii
.L16:
	.loc 3 115 14
	call	getch
	.loc 3 116 20
	leaq	.LC0(%rip), %rax
	movq	%rax, %rcx
	call	system
	.loc 3 118 22
	leaq	.LC9(%rip), %rax
	movq	%rax, %rdx
	movq	.refptr._ZSt4cout(%rip), %rax
	movq	%rax, %rcx
	call	_ZStlsISt11char_traitsIcEERSt13basic_ostreamIcT_ES5_PKc
	.loc 3 119 22
	leaq	.LC10(%rip), %rax
	movq	%rax, %rdx
	movq	.refptr._ZSt4cout(%rip), %rax
	movq	%rax, %rcx
	call	_ZStlsISt11char_traitsIcEERSt13basic_ostreamIcT_ES5_PKc
	.loc 3 120 22
	leaq	.LC11(%rip), %rax
	movq	%rax, %rdx
	movq	.refptr._ZSt4cout(%rip), %rax
	movq	%rax, %rcx
	call	_ZStlsISt11char_traitsIcEERSt13basic_ostreamIcT_ES5_PKc
	.loc 3 121 22
	leaq	.LC12(%rip), %rax
	movq	%rax, %rdx
	movq	.refptr._ZSt4cout(%rip), %rax
	movq	%rax, %rcx
	call	_ZStlsISt11char_traitsIcEERSt13basic_ostreamIcT_ES5_PKc
	.loc 3 122 21
	leaq	-8(%rbp), %rax
	movq	%rax, %rdx
	movq	.refptr._ZSt3cin(%rip), %rax
	movq	%rax, %rcx
	call	_ZNSirsERi
	.loc 3 124 9
	movl	-8(%rbp), %eax
	cmpl	$3, %eax
	je	.L17
	cmpl	$3, %eax
	jg	.L18
	cmpl	$1, %eax
	je	.L19
	cmpl	$2, %eax
	je	.L20
	jmp	.L18
.L19:
	.loc 3 127 28
	movq	-32(%rbp), %rax
	leaq	-24(%rbp), %rdx
	movq	%rdx, %r8
	movq	%rax, %rdx
	leaq	_Z14BubbleSortListP4Node(%rip), %rax
	movq	%rax, %rcx
	call	_Z8ListSortPFP4NodeS0_ES0_Rx
	.loc 3 127 18 discriminator 1
	movq	%rax, -32(%rbp)
	.loc 3 128 13
	jmp	.L18
.L20:
	.loc 3 130 28
	movq	-32(%rbp), %rax
	leaq	-24(%rbp), %rdx
	movq	%rdx, %r8
	movq	%rax, %rdx
	leaq	_Z17SelectionSortListP4Node(%rip), %rax
	movq	%rax, %rcx
	call	_Z8ListSortPFP4NodeS0_ES0_Rx
	.loc 3 130 18 discriminator 1
	movq	%rax, -32(%rbp)
	.loc 3 131 13
	jmp	.L18
.L17:
	.loc 3 133 28
	movq	-32(%rbp), %rax
	leaq	-24(%rbp), %rdx
	movq	%rdx, %r8
	movq	%rax, %rdx
	leaq	_Z17InsertionSortListP4Node(%rip), %rax
	movq	%rax, %rcx
	call	_Z8ListSortPFP4NodeS0_ES0_Rx
	.loc 3 133 18 discriminator 1
	movq	%rax, -32(%rbp)
	.loc 3 134 13
	nop
.L18:
	.loc 3 137 18
	movl	-12(%rbp), %edx
	movl	PRINT_MAX_SIZE(%rip), %eax
	.loc 3 137 9
	cmpl	%eax, %edx
	jg	.L21
	.loc 3 139 26
	leaq	.LC13(%rip), %rax
	movq	%rax, %rdx
	movq	.refptr._ZSt4cout(%rip), %rax
	movq	%rax, %rcx
	call	_ZStlsISt11char_traitsIcEERSt13basic_ostreamIcT_ES5_PKc
	.loc 3 140 22
	movq	-32(%rbp), %rax
	movq	%rax, %rcx
	call	_Z9PrintListP4Node
.L21:
	.loc 3 142 22
	leaq	.LC14(%rip), %rax
	movq	%rax, %rdx
	movq	.refptr._ZSt4cout(%rip), %rax
	movq	%rax, %rcx
	call	_ZStlsISt11char_traitsIcEERSt13basic_ostreamIcT_ES5_PKc
	movq	%rax, %rcx
	.loc 3 142 56 discriminator 1
	movq	-24(%rbp), %rax
	.loc 3 142 39 discriminator 1
	movq	%rax, %rdx
	call	_ZNSolsEx
	movq	%rax, %rcx
	.loc 3 142 56 discriminator 2
	movq	.refptr._ZSt4endlIcSt11char_traitsIcEERSt13basic_ostreamIT_T0_ES6_(%rip), %rax
	movq	%rax, %rdx
	call	_ZNSolsEPFRSoS_E
	.loc 3 144 14
	call	getch
	.loc 3 145 20
	leaq	.LC0(%rip), %rax
	movq	%rax, %rcx
	call	system
	.loc 3 147 22
	leaq	.LC15(%rip), %rax
	movq	%rax, %rdx
	movq	.refptr._ZSt4cout(%rip), %rax
	movq	%rax, %rcx
	call	_ZStlsISt11char_traitsIcEERSt13basic_ostreamIcT_ES5_PKc
	.loc 3 148 22
	leaq	.LC10(%rip), %rax
	movq	%rax, %rdx
	movq	.refptr._ZSt4cout(%rip), %rax
	movq	%rax, %rcx
	call	_ZStlsISt11char_traitsIcEERSt13basic_ostreamIcT_ES5_PKc
	.loc 3 149 22
	leaq	.LC11(%rip), %rax
	movq	%rax, %rdx
	movq	.refptr._ZSt4cout(%rip), %rax
	movq	%rax, %rcx
	call	_ZStlsISt11char_traitsIcEERSt13basic_ostreamIcT_ES5_PKc
	.loc 3 150 22
	leaq	.LC12(%rip), %rax
	movq	%rax, %rdx
	movq	.refptr._ZSt4cout(%rip), %rax
	movq	%rax, %rcx
	call	_ZStlsISt11char_traitsIcEERSt13basic_ostreamIcT_ES5_PKc
	.loc 3 151 21
	leaq	-8(%rbp), %rax
	movq	%rax, %rdx
	movq	.refptr._ZSt3cin(%rip), %rax
	movq	%rax, %rcx
	call	_ZNSirsERi
	.loc 3 153 9
	movl	-8(%rbp), %eax
	cmpl	$3, %eax
	je	.L22
	cmpl	$3, %eax
	jg	.L23
	cmpl	$1, %eax
	je	.L24
	cmpl	$2, %eax
	je	.L25
	jmp	.L23
.L24:
	.loc 3 156 30
	movl	-12(%rbp), %edx
	leaq	-24(%rbp), %rcx
	leaq	-40(%rbp), %rax
	movq	%rcx, %r9
	movl	%edx, %r8d
	movq	%rax, %rdx
	leaq	_Z15BubbleSortArrayRPii(%rip), %rax
	movq	%rax, %rcx
	call	_Z9ArraySortPFPiRS_iES0_iRx
	.loc 3 156 19 discriminator 1
	movq	%rax, -40(%rbp)
	.loc 3 157 13
	jmp	.L23
.L25:
	.loc 3 159 30
	movl	-12(%rbp), %edx
	leaq	-24(%rbp), %rcx
	leaq	-40(%rbp), %rax
	movq	%rcx, %r9
	movl	%edx, %r8d
	movq	%rax, %rdx
	leaq	_Z18SelectionSortArrayRPii(%rip), %rax
	movq	%rax, %rcx
	call	_Z9ArraySortPFPiRS_iES0_iRx
	.loc 3 159 19 discriminator 1
	movq	%rax, -40(%rbp)
	.loc 3 160 13
	jmp	.L23
.L22:
	.loc 3 162 30
	movl	-12(%rbp), %edx
	leaq	-24(%rbp), %rcx
	leaq	-40(%rbp), %rax
	movq	%rcx, %r9
	movl	%edx, %r8d
	movq	%rax, %rdx
	leaq	_Z18InsertionSortArrayRPii(%rip), %rax
	movq	%rax, %rcx
	call	_Z9ArraySortPFPiRS_iES0_iRx
	.loc 3 162 19 discriminator 1
	movq	%rax, -40(%rbp)
	.loc 3 163 13
	nop
.L23:
	.loc 3 166 18
	movl	-12(%rbp), %edx
	movl	PRINT_MAX_SIZE(%rip), %eax
	.loc 3 166 9
	cmpl	%eax, %edx
	jg	.L26
	.loc 3 168 26
	leaq	.LC16(%rip), %rax
	movq	%rax, %rdx
	movq	.refptr._ZSt4cout(%rip), %rax
	movq	%rax, %rcx
	call	_ZStlsISt11char_traitsIcEERSt13basic_ostreamIcT_ES5_PKc
	.loc 3 169 23
	movl	-12(%rbp), %edx
	movq	-40(%rbp), %rax
	movq	%rax, %rcx
	call	_Z10PrintArrayPii
.L26:
	.loc 3 171 22
	leaq	.LC14(%rip), %rax
	movq	%rax, %rdx
	movq	.refptr._ZSt4cout(%rip), %rax
	movq	%rax, %rcx
	call	_ZStlsISt11char_traitsIcEERSt13basic_ostreamIcT_ES5_PKc
	movq	%rax, %rcx
	.loc 3 171 56 discriminator 1
	movq	-24(%rbp), %rax
	.loc 3 171 39 discriminator 1
	movq	%rax, %rdx
	call	_ZNSolsEx
	movq	%rax, %rcx
	.loc 3 171 56 discriminator 2
	movq	.refptr._ZSt4endlIcSt11char_traitsIcEERSt13basic_ostreamIT_T0_ES6_(%rip), %rax
	movq	%rax, %rdx
	call	_ZNSolsEPFRSoS_E
	.loc 3 173 14
	call	getch
	.loc 3 174 20
	leaq	.LC0(%rip), %rax
	movq	%rax, %rcx
	call	system
	.loc 3 176 9
	movq	-40(%rbp), %rax
	testq	%rax, %rax
	je	.L27
	.loc 3 176 18 discriminator 1
	movq	-40(%rbp), %rax
	movq	%rax, %rcx
	call	_ZdaPv
.L27:
	.loc 3 177 15
	movq	$0, -40(%rbp)
	.loc 3 178 26
	leaq	-32(%rbp), %rax
	movq	%rax, %rcx
	call	_Z10DeleteListRP4Node
	.loc 3 178 14 discriminator 1
	movq	%rax, -32(%rbp)
	.loc 3 179 14
	movq	$0, -32(%rbp)
	.loc 3 181 13
	movl	$0, -44(%rbp)
	.loc 3 182 22
	leaq	.LC17(%rip), %rax
	movq	%rax, %rdx
	movq	.refptr._ZSt4cout(%rip), %rax
	movq	%rax, %rcx
	call	_ZStlsISt11char_traitsIcEERSt13basic_ostreamIcT_ES5_PKc
	.loc 3 183 21
	leaq	-44(%rbp), %rax
	movq	%rax, %rdx
	movq	.refptr._ZSt3cin(%rip), %rax
	movq	%rax, %rcx
	call	_ZNSirsERi
.LBB99:
	.loc 3 185 21
	movl	-44(%rbp), %eax
	.loc 3 185 9
	cmpl	$1, %eax
	jne	.L28
.LBB100:
	.loc 3 187 24
	leaq	.LC0(%rip), %rax
	movq	%rax, %rcx
	call	system
	.loc 3 189 26
	leaq	.LC18(%rip), %rax
	movq	%rax, %rdx
	movq	.refptr._ZSt4cout(%rip), %rax
	movq	%rax, %rcx
	call	_ZStlsISt11char_traitsIcEERSt13basic_ostreamIcT_ES5_PKc
	.loc 3 190 25
	leaq	-48(%rbp), %rax
	movq	%rax, %rdx
	movq	.refptr._ZSt3cin(%rip), %rax
	movq	%rax, %rcx
	call	_ZNSirsERi
	.loc 3 191 25
	movl	-48(%rbp), %eax
	movl	%eax, %ecx
	call	_Z12listAutoTesti
	.loc 3 192 31
	movq	.refptr._ZSt4endlIcSt11char_traitsIcEERSt13basic_ostreamIT_T0_ES6_(%rip), %rax
	movq	%rax, %rdx
	movq	.refptr._ZSt4cout(%rip), %rax
	movq	%rax, %rcx
	call	_ZNSolsEPFRSoS_E
	.loc 3 193 26
	movl	-48(%rbp), %eax
	movl	%eax, %ecx
	call	_Z13arrayAutoTesti
	.loc 3 194 18
	call	getch
.L28:
.LBE100:
.LBE99:
	.loc 3 197 20
	leaq	.LC0(%rip), %rax
	movq	%rax, %rcx
	call	system
	.loc 3 198 22
	leaq	.LC19(%rip), %rax
	movq	%rax, %rdx
	movq	.refptr._ZSt4cout(%rip), %rax
	movq	%rax, %rcx
	call	_ZStlsISt11char_traitsIcEERSt13basic_ostreamIcT_ES5_PKc
	.loc 3 199 21
	leaq	-4(%rbp), %rax
	movq	%rax, %rdx
	movq	.refptr._ZSt3cin(%rip), %rax
	movq	%rax, %rcx
	call	_ZNSirsERi
.L7:
.LBE98:
	.loc 3 72 21
	movl	-4(%rbp), %eax
	testl	%eax, %eax
	jne	.L29
	.loc 3 201 12
	movl	$0, %eax
	.loc 3 202 1
	addq	$88, %rsp
	popq	%rbx
	.cfi_restore 3
	popq	%rbp
	.cfi_restore 6
	.cfi_def_cfa 7, -72
	ret
	.cfi_endproc
.LFE8647:
	.seh_endproc
	.globl	_Z8ListSortPFP4NodeS0_ES0_Rx
	.def	_Z8ListSortPFP4NodeS0_ES0_Rx;	.scl	2;	.type	32;	.endef
	.seh_proc	_Z8ListSortPFP4NodeS0_ES0_Rx
_Z8ListSortPFP4NodeS0_ES0_Rx:
.LFB8648:
	.loc 3 205 1
	.cfi_startproc
	pushq	%rbp
	.seh_pushreg	%rbp
	.cfi_def_cfa_offset 16
	.cfi_offset 6, -16
	movq	%rsp, %rbp
	.seh_setframe	%rbp, 0
	.cfi_def_cfa_register 6
	subq	$80, %rsp
	.seh_stackalloc	80
	.seh_endprologue
	movq	%rcx, 16(%rbp)
	movq	%rdx, 24(%rbp)
	movq	%r8, 32(%rbp)
	.loc 3 206 57
	call	_ZNSt6chrono3_V212system_clock3nowEv
	movq	%rax, -32(%rbp)
	.loc 3 207 22
	movq	16(%rbp), %rdx
	movq	24(%rbp), %rax
	movq	%rax, %rcx
	call	*%rdx
.LVL1:
	.loc 3 207 22 is_stmt 0 discriminator 1
	movq	%rax, -8(%rbp)
	.loc 3 208 55 is_stmt 1
	call	_ZNSt6chrono3_V212system_clock3nowEv
	movq	%rax, -40(%rbp)
	.loc 3 209 73
	leaq	-32(%rbp), %rdx
	leaq	-40(%rbp), %rax
	movq	%rax, %rcx
	call	_ZNSt6chronomiINS_3_V212system_clockENS_8durationIxSt5ratioILx1ELx1000000000EEEES6_EENSt11common_typeIJT0_T1_EE4typeERKNS_10time_pointIT_S8_EERKNSC_ISD_S9_EE
	movq	%rax, -16(%rbp)
	.loc 3 209 66 discriminator 2
	leaq	-16(%rbp), %rax
	movq	%rax, %rcx
	call	_ZNSt6chrono13duration_castINS_8durationIxSt5ratioILx1ELx1000000EEEExS2_ILx1ELx1000000000EEEENSt9enable_ifIXsrNS_13__is_durationIT_EE5valueES8_E4typeERKNS1_IT0_T1_EE
	movq	%rax, -24(%rbp)
	.loc 3 210 23
	leaq	-24(%rbp), %rax
	movq	%rax, %rcx
	call	_ZNKSt6chrono8durationIxSt5ratioILx1ELx1000000EEE5countEv
	.loc 3 209 11
	movq	32(%rbp), %rdx
	movq	%rax, (%rdx)
	.loc 3 211 12
	movq	-8(%rbp), %rax
	.loc 3 212 1
	addq	$80, %rsp
	popq	%rbp
	.cfi_restore 6
	.cfi_def_cfa 7, 8
	ret
	.cfi_endproc
.LFE8648:
	.seh_endproc
	.globl	_Z16FillListBestCaseRP4Nodei
	.def	_Z16FillListBestCaseRP4Nodei;	.scl	2;	.type	32;	.endef
	.seh_proc	_Z16FillListBestCaseRP4Nodei
_Z16FillListBestCaseRP4Nodei:
.LFB8649:
	.loc 3 215 1
	.cfi_startproc
	pushq	%rbp
	.seh_pushreg	%rbp
	.cfi_def_cfa_offset 16
	.cfi_offset 6, -16
	movq	%rsp, %rbp
	.seh_setframe	%rbp, 0
	.cfi_def_cfa_register 6
	subq	$48, %rsp
	.seh_stackalloc	48
	.seh_endprologue
	movq	%rcx, 16(%rbp)
	movl	%edx, 24(%rbp)
	.loc 3 216 22
	movl	$16, %ecx
	call	_Znwy
	movq	%rax, %rdx
	.loc 3 216 11 discriminator 1
	movq	16(%rbp), %rax
	movq	%rdx, (%rax)
	.loc 3 217 11
	movq	16(%rbp), %rax
	movq	(%rax), %rax
	movq	%rax, -8(%rbp)
	.loc 3 218 21
	movq	-8(%rbp), %rax
	movq	$0, 8(%rax)
	.loc 3 219 22
	movq	-8(%rbp), %rax
	movl	$0, (%rax)
.LBB101:
	.loc 3 221 14
	movl	$0, -12(%rbp)
	.loc 3 221 5
	jmp	.L34
.L35:
	.loc 3 223 36
	movl	$16, %ecx
	call	_Znwy
	movq	%rax, %rdx
	.loc 3 223 25 discriminator 1
	movq	-8(%rbp), %rax
	movq	%rdx, 8(%rax)
	.loc 3 224 17
	movq	-8(%rbp), %rax
	movq	8(%rax), %rax
	movq	%rax, -8(%rbp)
	.loc 3 225 30
	movl	-12(%rbp), %eax
	leal	1(%rax), %edx
	.loc 3 225 26
	movq	-8(%rbp), %rax
	movl	%edx, (%rax)
	.loc 3 226 25
	movq	-8(%rbp), %rax
	movq	$0, 8(%rax)
	.loc 3 221 5 discriminator 3
	addl	$1, -12(%rbp)
.L34:
	.loc 3 221 23 discriminator 1
	movl	-12(%rbp), %eax
	cmpl	24(%rbp), %eax
	jl	.L35
.LBE101:
	.loc 3 228 1
	nop
	nop
	addq	$48, %rsp
	popq	%rbp
	.cfi_restore 6
	.cfi_def_cfa 7, 8
	ret
	.cfi_endproc
.LFE8649:
	.seh_endproc
	.globl	_Z18FillListMiddleCaseRP4Nodei
	.def	_Z18FillListMiddleCaseRP4Nodei;	.scl	2;	.type	32;	.endef
	.seh_proc	_Z18FillListMiddleCaseRP4Nodei
_Z18FillListMiddleCaseRP4Nodei:
.LFB8650:
	.loc 3 231 1
	.cfi_startproc
	pushq	%rbp
	.seh_pushreg	%rbp
	.cfi_def_cfa_offset 16
	.cfi_offset 6, -16
	movq	%rsp, %rbp
	.seh_setframe	%rbp, 0
	.cfi_def_cfa_register 6
	subq	$48, %rsp
	.seh_stackalloc	48
	.seh_endprologue
	movq	%rcx, 16(%rbp)
	movl	%edx, 24(%rbp)
	.loc 3 232 22
	movl	$16, %ecx
	call	_Znwy
	movq	%rax, %rdx
	.loc 3 232 11 discriminator 1
	movq	16(%rbp), %rax
	movq	%rdx, (%rax)
	.loc 3 233 11
	movq	16(%rbp), %rax
	movq	(%rax), %rax
	movq	%rax, -8(%rbp)
	.loc 3 234 21
	movq	-8(%rbp), %rax
	movq	$0, 8(%rax)
	.loc 3 235 22
	movq	-8(%rbp), %rax
	movl	$0, (%rax)
.LBB102:
	.loc 3 237 14
	movl	$0, -12(%rbp)
	.loc 3 237 5
	jmp	.L37
.L38:
	.loc 3 239 36
	movl	$16, %ecx
	call	_Znwy
	movq	%rax, %rdx
	.loc 3 239 25 discriminator 1
	movq	-8(%rbp), %rax
	movq	%rdx, 8(%rax)
	.loc 3 240 17
	movq	-8(%rbp), %rax
	movq	8(%rax), %rax
	movq	%rax, -8(%rbp)
	.loc 3 241 33
	call	rand
	.loc 3 241 36 discriminator 1
	cltd
	idivl	24(%rbp)
	movl	%edx, %eax
	.loc 3 241 45 discriminator 1
	leal	1(%rax), %edx
	.loc 3 241 26 discriminator 1
	movq	-8(%rbp), %rax
	movl	%edx, (%rax)
	.loc 3 242 25
	movq	-8(%rbp), %rax
	movq	$0, 8(%rax)
	.loc 3 237 5 discriminator 3
	addl	$1, -12(%rbp)
.L37:
	.loc 3 237 23 discriminator 1
	movl	-12(%rbp), %eax
	cmpl	24(%rbp), %eax
	jl	.L38
.LBE102:
	.loc 3 244 1
	nop
	nop
	addq	$48, %rsp
	popq	%rbp
	.cfi_restore 6
	.cfi_def_cfa 7, 8
	ret
	.cfi_endproc
.LFE8650:
	.seh_endproc
	.globl	_Z15FillListBadCaseRP4Nodei
	.def	_Z15FillListBadCaseRP4Nodei;	.scl	2;	.type	32;	.endef
	.seh_proc	_Z15FillListBadCaseRP4Nodei
_Z15FillListBadCaseRP4Nodei:
.LFB8651:
	.loc 3 247 1
	.cfi_startproc
	pushq	%rbp
	.seh_pushreg	%rbp
	.cfi_def_cfa_offset 16
	.cfi_offset 6, -16
	movq	%rsp, %rbp
	.seh_setframe	%rbp, 0
	.cfi_def_cfa_register 6
	subq	$48, %rsp
	.seh_stackalloc	48
	.seh_endprologue
	movq	%rcx, 16(%rbp)
	movl	%edx, 24(%rbp)
	.loc 3 248 22
	movl	$16, %ecx
	call	_Znwy
	movq	%rax, %rdx
	.loc 3 248 11 discriminator 1
	movq	16(%rbp), %rax
	movq	%rdx, (%rax)
	.loc 3 249 11
	movq	16(%rbp), %rax
	movq	(%rax), %rax
	movq	%rax, -8(%rbp)
	.loc 3 250 21
	movq	-8(%rbp), %rax
	movq	$0, 8(%rax)
	.loc 3 251 22
	movq	-8(%rbp), %rax
	movl	$0, (%rax)
.LBB103:
	.loc 3 252 14
	movl	$0, -12(%rbp)
	.loc 3 252 5
	jmp	.L40
.L41:
	.loc 3 254 36
	movl	$16, %ecx
	call	_Znwy
	movq	%rax, %rdx
	.loc 3 254 25 discriminator 1
	movq	-8(%rbp), %rax
	movq	%rdx, 8(%rax)
	.loc 3 255 17
	movq	-8(%rbp), %rax
	movq	8(%rax), %rax
	movq	%rax, -8(%rbp)
	.loc 3 256 34
	movl	24(%rbp), %eax
	subl	-12(%rbp), %eax
	movl	%eax, %edx
	.loc 3 256 26
	movq	-8(%rbp), %rax
	movl	%edx, (%rax)
	.loc 3 257 25
	movq	-8(%rbp), %rax
	movq	$0, 8(%rax)
	.loc 3 252 5 discriminator 3
	addl	$1, -12(%rbp)
.L40:
	.loc 3 252 23 discriminator 1
	movl	-12(%rbp), %eax
	cmpl	24(%rbp), %eax
	jl	.L41
.LBE103:
	.loc 3 259 1
	nop
	nop
	addq	$48, %rsp
	popq	%rbp
	.cfi_restore 6
	.cfi_def_cfa 7, 8
	ret
	.cfi_endproc
.LFE8651:
	.seh_endproc
	.globl	_Z14BubbleSortListP4Node
	.def	_Z14BubbleSortListP4Node;	.scl	2;	.type	32;	.endef
	.seh_proc	_Z14BubbleSortListP4Node
_Z14BubbleSortListP4Node:
.LFB8652:
	.loc 3 262 1
	.cfi_startproc
	pushq	%rbp
	.seh_pushreg	%rbp
	.cfi_def_cfa_offset 16
	.cfi_offset 6, -16
	movq	%rsp, %rbp
	.seh_setframe	%rbp, 0
	.cfi_def_cfa_register 6
	subq	$32, %rsp
	.seh_stackalloc	32
	.seh_endprologue
	movq	%rcx, 16(%rbp)
	.loc 3 264 11
	movq	$0, -16(%rbp)
	.loc 3 266 5
	jmp	.L43
.L47:
	.loc 3 268 17
	movq	16(%rbp), %rax
	movq	8(%rax), %rax
	movq	%rax, -8(%rbp)
	.loc 3 269 9
	jmp	.L44
.L46:
	.loc 3 271 28
	movq	-8(%rbp), %rax
	movl	(%rax), %edx
	.loc 3 271 49
	movq	-8(%rbp), %rax
	movq	8(%rax), %rax
	.loc 3 271 55
	movl	(%rax), %eax
	.loc 3 271 13
	cmpl	%eax, %edx
	jle	.L45
	.loc 3 273 22
	movq	-8(%rbp), %rax
	movl	(%rax), %eax
	movl	%eax, -20(%rbp)
	.loc 3 274 49
	movq	-8(%rbp), %rax
	movq	8(%rax), %rax
	.loc 3 274 55
	movl	(%rax), %edx
	.loc 3 274 34
	movq	-8(%rbp), %rax
	movl	%edx, (%rax)
	.loc 3 275 30
	movq	-8(%rbp), %rax
	movq	8(%rax), %rax
	.loc 3 275 42
	movl	-20(%rbp), %edx
	movl	%edx, (%rax)
.L45:
	.loc 3 277 21
	movq	-8(%rbp), %rax
	movq	8(%rax), %rax
	movq	%rax, -8(%rbp)
.L44:
	.loc 3 269 27
	movq	-8(%rbp), %rax
	movq	8(%rax), %rax
	.loc 3 269 32
	cmpq	%rax, -16(%rbp)
	jne	.L46
	.loc 3 279 18
	movq	-8(%rbp), %rax
	movq	%rax, -16(%rbp)
.L43:
	.loc 3 266 33
	movq	16(%rbp), %rax
	movq	8(%rax), %rax
	.loc 3 266 21
	cmpq	%rax, -16(%rbp)
	jne	.L47
	.loc 3 281 12
	movq	16(%rbp), %rax
	.loc 3 282 1
	addq	$32, %rsp
	popq	%rbp
	.cfi_restore 6
	.cfi_def_cfa 7, 8
	ret
	.cfi_endproc
.LFE8652:
	.seh_endproc
	.globl	_Z17SelectionSortListP4Node
	.def	_Z17SelectionSortListP4Node;	.scl	2;	.type	32;	.endef
	.seh_proc	_Z17SelectionSortListP4Node
_Z17SelectionSortListP4Node:
.LFB8653:
	.loc 3 285 1
	.cfi_startproc
	pushq	%rbp
	.seh_pushreg	%rbp
	.cfi_def_cfa_offset 16
	.cfi_offset 6, -16
	movq	%rsp, %rbp
	.seh_setframe	%rbp, 0
	.cfi_def_cfa_register 6
	subq	$32, %rsp
	.seh_stackalloc	32
	.seh_endprologue
	movq	%rcx, 16(%rbp)
	.loc 3 286 11
	movq	16(%rbp), %rax
	movq	8(%rax), %rax
	movq	%rax, -8(%rbp)
	.loc 3 289 5
	jmp	.L50
.L55:
	.loc 3 291 17
	movq	-8(%rbp), %rax
	movq	%rax, -24(%rbp)
	.loc 3 292 20
	movq	-8(%rbp), %rax
	movq	8(%rax), %rax
	movq	%rax, -16(%rbp)
	.loc 3 293 9
	jmp	.L51
.L53:
	.loc 3 295 31
	movq	-16(%rbp), %rax
	movl	(%rax), %edx
	.loc 3 295 50
	movq	-24(%rbp), %rax
	movl	(%rax), %eax
	.loc 3 295 13
	cmpl	%eax, %edx
	jge	.L52
	.loc 3 297 25
	movq	-16(%rbp), %rax
	movq	%rax, -24(%rbp)
.L52:
	.loc 3 299 24
	movq	-16(%rbp), %rax
	movq	8(%rax), %rax
	movq	%rax, -16(%rbp)
.L51:
	.loc 3 293 27
	cmpq	$0, -16(%rbp)
	jne	.L53
	.loc 3 301 9
	movq	-24(%rbp), %rax
	cmpq	-8(%rbp), %rax
	je	.L54
	.loc 3 303 18
	movq	-24(%rbp), %rax
	movl	(%rax), %eax
	movl	%eax, -28(%rbp)
	.loc 3 304 43
	movq	-8(%rbp), %rax
	movl	(%rax), %edx
	.loc 3 304 30
	movq	-24(%rbp), %rax
	movl	%edx, (%rax)
	.loc 3 305 30
	movq	-8(%rbp), %rax
	movl	-28(%rbp), %edx
	movl	%edx, (%rax)
.L54:
	.loc 3 307 17
	movq	-8(%rbp), %rax
	movq	8(%rax), %rax
	movq	%rax, -8(%rbp)
.L50:
	.loc 3 289 20
	cmpq	$0, -8(%rbp)
	jne	.L55
	.loc 3 309 12
	movq	16(%rbp), %rax
	.loc 3 310 1
	addq	$32, %rsp
	popq	%rbp
	.cfi_restore 6
	.cfi_def_cfa 7, 8
	ret
	.cfi_endproc
.LFE8653:
	.seh_endproc
	.globl	_Z17InsertionSortListP4Node
	.def	_Z17InsertionSortListP4Node;	.scl	2;	.type	32;	.endef
	.seh_proc	_Z17InsertionSortListP4Node
_Z17InsertionSortListP4Node:
.LFB8654:
	.loc 3 313 1
	.cfi_startproc
	pushq	%rbp
	.seh_pushreg	%rbp
	.cfi_def_cfa_offset 16
	.cfi_offset 6, -16
	movq	%rsp, %rbp
	.seh_setframe	%rbp, 0
	.cfi_def_cfa_register 6
	subq	$32, %rsp
	.seh_stackalloc	32
	.seh_endprologue
	movq	%rcx, 16(%rbp)
	.loc 3 315 11
	movq	16(%rbp), %rax
	movq	8(%rax), %rax
	movq	%rax, -16(%rbp)
	.loc 3 316 32
	movq	16(%rbp), %rax
	movq	8(%rax), %rax
	.loc 3 316 38
	movq	8(%rax), %rdx
	.loc 3 316 19
	movq	16(%rbp), %rax
	movq	%rdx, 8(%rax)
	.loc 3 317 24
	movq	-16(%rbp), %rax
	movq	$0, 8(%rax)
	.loc 3 318 5
	jmp	.L58
.L64:
	.loc 3 320 17
	movq	16(%rbp), %rax
	movq	%rax, -24(%rbp)
	.loc 3 321 15
	movq	16(%rbp), %rax
	movq	8(%rax), %rax
	movq	%rax, 16(%rbp)
	.loc 3 322 24
	movq	-24(%rbp), %rax
	movl	(%rax), %edx
	.loc 3 322 46
	movq	-16(%rbp), %rax
	movl	(%rax), %eax
	.loc 3 322 9
	cmpl	%eax, %edx
	jge	.L59
	.loc 3 324 29
	movq	-24(%rbp), %rax
	movq	-16(%rbp), %rdx
	movq	%rdx, 8(%rax)
	.loc 3 325 24
	movq	-24(%rbp), %rax
	movq	%rax, -16(%rbp)
	jmp	.L58
.L59:
	.loc 3 329 24
	movq	-16(%rbp), %rax
	movq	%rax, -8(%rbp)
	.loc 3 330 13
	jmp	.L60
.L63:
	.loc 3 332 37
	movq	-8(%rbp), %rax
	movq	8(%rax), %rax
	.loc 3 332 43
	movl	(%rax), %edx
	.loc 3 332 62
	movq	-24(%rbp), %rax
	movl	(%rax), %eax
	.loc 3 332 17
	cmpl	%eax, %edx
	jg	.L66
	.loc 3 336 28
	movq	-8(%rbp), %rax
	movq	8(%rax), %rax
	movq	%rax, -8(%rbp)
.L60:
	.loc 3 330 34
	movq	-8(%rbp), %rax
	movq	8(%rax), %rax
	.loc 3 330 39
	testq	%rax, %rax
	jne	.L63
	jmp	.L62
.L66:
	.loc 3 334 21
	nop
.L62:
	.loc 3 338 45
	movq	-8(%rbp), %rax
	movq	8(%rax), %rdx
	.loc 3 338 29
	movq	-24(%rbp), %rax
	movq	%rdx, 8(%rax)
	.loc 3 339 32
	movq	-8(%rbp), %rax
	movq	-24(%rbp), %rdx
	movq	%rdx, 8(%rax)
.L58:
	.loc 3 318 18
	cmpq	$0, 16(%rbp)
	jne	.L64
	.loc 3 342 12
	movq	-16(%rbp), %rax
	.loc 3 343 1
	addq	$32, %rsp
	popq	%rbp
	.cfi_restore 6
	.cfi_def_cfa 7, 8
	ret
	.cfi_endproc
.LFE8654:
	.seh_endproc
	.globl	_Z10DeleteListRP4Node
	.def	_Z10DeleteListRP4Node;	.scl	2;	.type	32;	.endef
	.seh_proc	_Z10DeleteListRP4Node
_Z10DeleteListRP4Node:
.LFB8655:
	.loc 3 346 1
	.cfi_startproc
	pushq	%rbp
	.seh_pushreg	%rbp
	.cfi_def_cfa_offset 16
	.cfi_offset 6, -16
	movq	%rsp, %rbp
	.seh_setframe	%rbp, 0
	.cfi_def_cfa_register 6
	subq	$48, %rsp
	.seh_stackalloc	48
	.seh_endprologue
	movq	%rcx, 16(%rbp)
	.loc 3 347 23
	movq	16(%rbp), %rax
	movq	(%rax), %rax
	.loc 3 347 11
	movq	8(%rax), %rax
	movq	%rax, -8(%rbp)
	.loc 3 348 5
	jmp	.L68
.L69:
.LBB104:
	.loc 3 350 15
	movq	-8(%rbp), %rax
	movq	%rax, -16(%rbp)
	.loc 3 351 17
	movq	-8(%rbp), %rax
	movq	8(%rax), %rax
	movq	%rax, -8(%rbp)
	.loc 3 352 9
	movq	-16(%rbp), %rax
	testq	%rax, %rax
	je	.L68
	.loc 3 352 16 discriminator 1
	movl	$16, %edx
	movq	%rax, %rcx
	call	_ZdlPvy
.L68:
.LBE104:
	.loc 3 348 23
	movq	-8(%rbp), %rax
	movq	8(%rax), %rax
	.loc 3 348 28
	testq	%rax, %rax
	jne	.L69
	.loc 3 354 5
	movq	16(%rbp), %rax
	movq	(%rax), %rax
	testq	%rax, %rax
	je	.L70
	.loc 3 354 12 discriminator 1
	movl	$16, %edx
	movq	%rax, %rcx
	call	_ZdlPvy
.L70:
	.loc 3 355 5
	movq	-8(%rbp), %rax
	testq	%rax, %rax
	je	.L71
	.loc 3 355 12 discriminator 1
	movl	$16, %edx
	movq	%rax, %rcx
	call	_ZdlPvy
.L71:
	.loc 3 356 21
	movq	16(%rbp), %rax
	movq	$0, (%rax)
	.loc 3 356 13
	movq	16(%rbp), %rax
	movq	(%rax), %rax
	movq	%rax, -8(%rbp)
	.loc 3 357 12
	movq	16(%rbp), %rax
	movq	(%rax), %rax
	.loc 3 358 1
	addq	$48, %rsp
	popq	%rbp
	.cfi_restore 6
	.cfi_def_cfa 7, 8
	ret
	.cfi_endproc
.LFE8655:
	.seh_endproc
	.globl	_Z9PrintListP4Node
	.def	_Z9PrintListP4Node;	.scl	2;	.type	32;	.endef
	.seh_proc	_Z9PrintListP4Node
_Z9PrintListP4Node:
.LFB8656:
	.loc 3 361 1
	.cfi_startproc
	pushq	%rbp
	.seh_pushreg	%rbp
	.cfi_def_cfa_offset 16
	.cfi_offset 6, -16
	movq	%rsp, %rbp
	.seh_setframe	%rbp, 0
	.cfi_def_cfa_register 6
	subq	$48, %rsp
	.seh_stackalloc	48
	.seh_endprologue
	movq	%rcx, 16(%rbp)
	.loc 3 362 5
	cmpq	$0, 16(%rbp)
	je	.L78
	.loc 3 366 11
	movq	16(%rbp), %rax
	movq	%rax, -8(%rbp)
	.loc 3 367 5
	jmp	.L76
.L77:
	.loc 3 369 17
	movq	-8(%rbp), %rax
	movq	8(%rax), %rax
	movq	%rax, -8(%rbp)
	.loc 3 370 42
	movq	-8(%rbp), %rax
	movl	(%rax), %eax
	movl	%eax, %edx
	movq	.refptr._ZSt4cout(%rip), %rax
	movq	%rax, %rcx
	call	_ZNSolsEi
	.loc 3 370 42 is_stmt 0 discriminator 1
	movl	$32, %edx
	movq	%rax, %rcx
	call	_ZStlsISt11char_traitsIcEERSt13basic_ostreamIcT_ES5_c
.L76:
	.loc 3 367 23 is_stmt 1
	movq	-8(%rbp), %rax
	movq	8(%rax), %rax
	.loc 3 367 28
	testq	%rax, %rax
	jne	.L77
	.loc 3 372 23
	movq	.refptr._ZSt4endlIcSt11char_traitsIcEERSt13basic_ostreamIT_T0_ES6_(%rip), %rax
	movq	%rax, %rdx
	movq	.refptr._ZSt4cout(%rip), %rax
	movq	%rax, %rcx
	call	_ZNSolsEPFRSoS_E
	jmp	.L73
.L78:
	.loc 3 364 9
	nop
.L73:
	.loc 3 373 1
	addq	$48, %rsp
	popq	%rbp
	.cfi_restore 6
	.cfi_def_cfa 7, 8
	ret
	.cfi_endproc
.LFE8656:
	.seh_endproc
	.globl	_Z9ArraySortPFPiRS_iES0_iRx
	.def	_Z9ArraySortPFPiRS_iES0_iRx;	.scl	2;	.type	32;	.endef
	.seh_proc	_Z9ArraySortPFPiRS_iES0_iRx
_Z9ArraySortPFPiRS_iES0_iRx:
.LFB8657:
	.loc 3 376 1
	.cfi_startproc
	pushq	%rbp
	.seh_pushreg	%rbp
	.cfi_def_cfa_offset 16
	.cfi_offset 6, -16
	movq	%rsp, %rbp
	.seh_setframe	%rbp, 0
	.cfi_def_cfa_register 6
	subq	$80, %rsp
	.seh_stackalloc	80
	.seh_endprologue
	movq	%rcx, 16(%rbp)
	movq	%rdx, 24(%rbp)
	movl	%r8d, 32(%rbp)
	movq	%r9, 40(%rbp)
	.loc 3 377 57
	call	_ZNSt6chrono3_V212system_clock3nowEv
	movq	%rax, -32(%rbp)
	.loc 3 378 21
	movq	16(%rbp), %r8
	movl	32(%rbp), %edx
	movq	24(%rbp), %rax
	movq	%rax, %rcx
	call	*%r8
.LVL2:
	.loc 3 378 21 is_stmt 0 discriminator 1
	movq	%rax, -8(%rbp)
	.loc 3 379 55 is_stmt 1
	call	_ZNSt6chrono3_V212system_clock3nowEv
	movq	%rax, -40(%rbp)
	.loc 3 380 73
	leaq	-32(%rbp), %rdx
	leaq	-40(%rbp), %rax
	movq	%rax, %rcx
	call	_ZNSt6chronomiINS_3_V212system_clockENS_8durationIxSt5ratioILx1ELx1000000000EEEES6_EENSt11common_typeIJT0_T1_EE4typeERKNS_10time_pointIT_S8_EERKNSC_ISD_S9_EE
	movq	%rax, -16(%rbp)
	.loc 3 380 66 discriminator 2
	leaq	-16(%rbp), %rax
	movq	%rax, %rcx
	call	_ZNSt6chrono13duration_castINS_8durationIxSt5ratioILx1ELx1000000EEEExS2_ILx1ELx1000000000EEEENSt9enable_ifIXsrNS_13__is_durationIT_EE5valueES8_E4typeERKNS1_IT0_T1_EE
	movq	%rax, -24(%rbp)
	.loc 3 380 85 discriminator 4
	leaq	-24(%rbp), %rax
	movq	%rax, %rcx
	call	_ZNKSt6chrono8durationIxSt5ratioILx1ELx1000000EEE5countEv
	.loc 3 380 11 discriminator 1
	movq	40(%rbp), %rdx
	movq	%rax, (%rdx)
	.loc 3 381 12
	movq	-8(%rbp), %rax
	.loc 3 382 1
	addq	$80, %rsp
	popq	%rbp
	.cfi_restore 6
	.cfi_def_cfa 7, 8
	ret
	.cfi_endproc
.LFE8657:
	.seh_endproc
	.globl	_Z17FillArrayBestCaseRPii
	.def	_Z17FillArrayBestCaseRPii;	.scl	2;	.type	32;	.endef
	.seh_proc	_Z17FillArrayBestCaseRPii
_Z17FillArrayBestCaseRPii:
.LFB8658:
	.loc 3 385 1
	.cfi_startproc
	pushq	%rbp
	.seh_pushreg	%rbp
	.cfi_def_cfa_offset 16
	.cfi_offset 6, -16
	movq	%rsp, %rbp
	.seh_setframe	%rbp, 0
	.cfi_def_cfa_register 6
	subq	$16, %rsp
	.seh_stackalloc	16
	.seh_endprologue
	movq	%rcx, 16(%rbp)
	movl	%edx, 24(%rbp)
.LBB105:
	.loc 3 386 14
	movl	$0, -4(%rbp)
	.loc 3 386 5
	jmp	.L82
.L83:
	.loc 3 388 9
	movq	16(%rbp), %rax
	movq	(%rax), %rax
	.loc 3 388 16
	movl	-4(%rbp), %edx
	movslq	%edx, %rdx
	.loc 3 388 17
	salq	$2, %rdx
	addq	%rdx, %rax
	.loc 3 388 23
	movl	-4(%rbp), %edx
	addl	$1, %edx
	.loc 3 388 19
	movl	%edx, (%rax)
	.loc 3 386 5 discriminator 3
	addl	$1, -4(%rbp)
.L82:
	.loc 3 386 23 discriminator 1
	movl	-4(%rbp), %eax
	cmpl	24(%rbp), %eax
	jl	.L83
.LBE105:
	.loc 3 390 1
	nop
	nop
	addq	$16, %rsp
	popq	%rbp
	.cfi_restore 6
	.cfi_def_cfa 7, 8
	ret
	.cfi_endproc
.LFE8658:
	.seh_endproc
	.globl	_Z19FillArrayMiddleCaseRPii
	.def	_Z19FillArrayMiddleCaseRPii;	.scl	2;	.type	32;	.endef
	.seh_proc	_Z19FillArrayMiddleCaseRPii
_Z19FillArrayMiddleCaseRPii:
.LFB8659:
	.loc 3 393 1
	.cfi_startproc
	pushq	%rbp
	.seh_pushreg	%rbp
	.cfi_def_cfa_offset 16
	.cfi_offset 6, -16
	movq	%rsp, %rbp
	.seh_setframe	%rbp, 0
	.cfi_def_cfa_register 6
	subq	$48, %rsp
	.seh_stackalloc	48
	.seh_endprologue
	movq	%rcx, 16(%rbp)
	movl	%edx, 24(%rbp)
.LBB106:
	.loc 3 394 14
	movl	$0, -4(%rbp)
	.loc 3 394 5
	jmp	.L85
.L86:
	.loc 3 396 26
	call	rand
	.loc 3 396 29 discriminator 1
	cltd
	idivl	24(%rbp)
	movl	%edx, %ecx
	.loc 3 396 9 discriminator 1
	movq	16(%rbp), %rax
	movq	(%rax), %rax
	.loc 3 396 16 discriminator 1
	movl	-4(%rbp), %edx
	movslq	%edx, %rdx
	.loc 3 396 17 discriminator 1
	salq	$2, %rdx
	addq	%rdx, %rax
	.loc 3 396 38 discriminator 1
	leal	1(%rcx), %edx
	.loc 3 396 19 discriminator 1
	movl	%edx, (%rax)
	.loc 3 394 5 discriminator 3
	addl	$1, -4(%rbp)
.L85:
	.loc 3 394 23 discriminator 1
	movl	-4(%rbp), %eax
	cmpl	24(%rbp), %eax
	jl	.L86
.LBE106:
	.loc 3 398 1
	nop
	nop
	addq	$48, %rsp
	popq	%rbp
	.cfi_restore 6
	.cfi_def_cfa 7, 8
	ret
	.cfi_endproc
.LFE8659:
	.seh_endproc
	.globl	_Z16FillArrayBadCaseRPii
	.def	_Z16FillArrayBadCaseRPii;	.scl	2;	.type	32;	.endef
	.seh_proc	_Z16FillArrayBadCaseRPii
_Z16FillArrayBadCaseRPii:
.LFB8660:
	.loc 3 401 1
	.cfi_startproc
	pushq	%rbp
	.seh_pushreg	%rbp
	.cfi_def_cfa_offset 16
	.cfi_offset 6, -16
	movq	%rsp, %rbp
	.seh_setframe	%rbp, 0
	.cfi_def_cfa_register 6
	subq	$16, %rsp
	.seh_stackalloc	16
	.seh_endprologue
	movq	%rcx, 16(%rbp)
	movl	%edx, 24(%rbp)
.LBB107:
	.loc 3 402 14
	movl	$0, -4(%rbp)
	.loc 3 402 5
	jmp	.L88
.L89:
	.loc 3 404 9
	movq	16(%rbp), %rax
	movq	(%rax), %rax
	.loc 3 404 16
	movl	-4(%rbp), %edx
	movslq	%edx, %rdx
	.loc 3 404 17
	salq	$2, %rdx
	addq	%rax, %rdx
	.loc 3 404 27
	movl	24(%rbp), %eax
	subl	-4(%rbp), %eax
	.loc 3 404 19
	movl	%eax, (%rdx)
	.loc 3 402 5 discriminator 3
	addl	$1, -4(%rbp)
.L88:
	.loc 3 402 23 discriminator 1
	movl	-4(%rbp), %eax
	cmpl	24(%rbp), %eax
	jl	.L89
.LBE107:
	.loc 3 406 1
	nop
	nop
	addq	$16, %rsp
	popq	%rbp
	.cfi_restore 6
	.cfi_def_cfa 7, 8
	ret
	.cfi_endproc
.LFE8660:
	.seh_endproc
	.globl	_Z15BubbleSortArrayRPii
	.def	_Z15BubbleSortArrayRPii;	.scl	2;	.type	32;	.endef
	.seh_proc	_Z15BubbleSortArrayRPii
_Z15BubbleSortArrayRPii:
.LFB8661:
	.loc 3 409 1
	.cfi_startproc
	pushq	%rbp
	.seh_pushreg	%rbp
	.cfi_def_cfa_offset 16
	.cfi_offset 6, -16
	movq	%rsp, %rbp
	.seh_setframe	%rbp, 0
	.cfi_def_cfa_register 6
	subq	$16, %rsp
	.seh_stackalloc	16
	.seh_endprologue
	movq	%rcx, 16(%rbp)
	movl	%edx, 24(%rbp)
.LBB108:
	.loc 3 411 14
	movl	$0, -4(%rbp)
	.loc 3 411 5
	jmp	.L91
.L95:
.LBB109:
.LBB110:
	.loc 3 413 18
	movl	$0, -8(%rbp)
	.loc 3 413 9
	jmp	.L92
.L94:
	.loc 3 415 17
	movq	16(%rbp), %rax
	movq	(%rax), %rax
	.loc 3 415 24
	movl	-8(%rbp), %edx
	movslq	%edx, %rdx
	.loc 3 415 25
	salq	$2, %rdx
	addq	%rdx, %rax
	movl	(%rax), %edx
	.loc 3 415 29
	movq	16(%rbp), %rax
	movq	(%rax), %rax
	.loc 3 415 41
	movl	-8(%rbp), %ecx
	movslq	%ecx, %rcx
	addq	$1, %rcx
	salq	$2, %rcx
	addq	%rcx, %rax
	movl	(%rax), %eax
	.loc 3 415 13
	cmpl	%eax, %edx
	jle	.L93
	.loc 3 417 24
	movq	16(%rbp), %rax
	movq	(%rax), %rax
	.loc 3 417 31
	movl	-8(%rbp), %edx
	movslq	%edx, %rdx
	.loc 3 417 32
	salq	$2, %rdx
	addq	%rdx, %rax
	.loc 3 417 22
	movl	(%rax), %eax
	movl	%eax, -12(%rbp)
	.loc 3 418 29
	movq	16(%rbp), %rax
	movq	(%rax), %rax
	.loc 3 418 41
	movl	-8(%rbp), %edx
	movslq	%edx, %rdx
	addq	$1, %rdx
	salq	$2, %rdx
	leaq	(%rax,%rdx), %rcx
	.loc 3 418 17
	movq	16(%rbp), %rax
	movq	(%rax), %rax
	.loc 3 418 24
	movl	-8(%rbp), %edx
	movslq	%edx, %rdx
	.loc 3 418 25
	salq	$2, %rdx
	addq	%rax, %rdx
	.loc 3 418 41
	movl	(%rcx), %eax
	.loc 3 418 27
	movl	%eax, (%rdx)
	.loc 3 419 17
	movq	16(%rbp), %rax
	movq	(%rax), %rax
	.loc 3 419 29
	movl	-8(%rbp), %edx
	movslq	%edx, %rdx
	addq	$1, %rdx
	salq	$2, %rdx
	addq	%rax, %rdx
	.loc 3 419 31
	movl	-12(%rbp), %eax
	movl	%eax, (%rdx)
.L93:
	.loc 3 413 9 discriminator 2
	addl	$1, -8(%rbp)
.L92:
	.loc 3 413 35 discriminator 1
	movl	24(%rbp), %eax
	subl	-4(%rbp), %eax
	.loc 3 413 39 discriminator 1
	subl	$1, %eax
	.loc 3 413 27 discriminator 1
	cmpl	%eax, -8(%rbp)
	jl	.L94
.LBE110:
.LBE109:
	.loc 3 411 5 discriminator 2
	addl	$1, -4(%rbp)
.L91:
	.loc 3 411 31 discriminator 1
	movl	24(%rbp), %eax
	subl	$1, %eax
	.loc 3 411 23 discriminator 1
	cmpl	%eax, -4(%rbp)
	jl	.L95
.LBE108:
	.loc 3 423 12
	movq	16(%rbp), %rax
	movq	(%rax), %rax
	.loc 3 424 1
	addq	$16, %rsp
	popq	%rbp
	.cfi_restore 6
	.cfi_def_cfa 7, 8
	ret
	.cfi_endproc
.LFE8661:
	.seh_endproc
	.globl	_Z18SelectionSortArrayRPii
	.def	_Z18SelectionSortArrayRPii;	.scl	2;	.type	32;	.endef
	.seh_proc	_Z18SelectionSortArrayRPii
_Z18SelectionSortArrayRPii:
.LFB8662:
	.loc 3 427 1
	.cfi_startproc
	pushq	%rbp
	.seh_pushreg	%rbp
	.cfi_def_cfa_offset 16
	.cfi_offset 6, -16
	movq	%rsp, %rbp
	.seh_setframe	%rbp, 0
	.cfi_def_cfa_register 6
	subq	$16, %rsp
	.seh_stackalloc	16
	.seh_endprologue
	movq	%rcx, 16(%rbp)
	movl	%edx, 24(%rbp)
.LBB111:
	.loc 3 429 14
	movl	$0, -8(%rbp)
	.loc 3 429 5
	jmp	.L98
.L102:
.LBB112:
	.loc 3 431 18
	movl	-8(%rbp), %eax
	movl	%eax, -4(%rbp)
.LBB113:
	.loc 3 432 18
	movl	-8(%rbp), %eax
	addl	$1, %eax
	movl	%eax, -12(%rbp)
	.loc 3 432 9
	jmp	.L99
.L101:
	.loc 3 434 17
	movq	16(%rbp), %rax
	movq	(%rax), %rax
	.loc 3 434 24
	movl	-12(%rbp), %edx
	movslq	%edx, %rdx
	.loc 3 434 25
	salq	$2, %rdx
	addq	%rdx, %rax
	movl	(%rax), %edx
	.loc 3 434 29
	movq	16(%rbp), %rax
	movq	(%rax), %rax
	.loc 3 434 36
	movl	-4(%rbp), %ecx
	movslq	%ecx, %rcx
	.loc 3 434 44
	salq	$2, %rcx
	addq	%rcx, %rax
	movl	(%rax), %eax
	.loc 3 434 13
	cmpl	%eax, %edx
	jge	.L100
	.loc 3 436 26
	movl	-12(%rbp), %eax
	movl	%eax, -4(%rbp)
.L100:
	.loc 3 432 9 discriminator 2
	addl	$1, -12(%rbp)
.L99:
	.loc 3 432 31 discriminator 1
	movl	-12(%rbp), %eax
	cmpl	24(%rbp), %eax
	jl	.L101
.LBE113:
	.loc 3 439 16
	movq	16(%rbp), %rax
	movq	(%rax), %rax
	.loc 3 439 23
	movl	-8(%rbp), %edx
	movslq	%edx, %rdx
	.loc 3 439 24
	salq	$2, %rdx
	addq	%rdx, %rax
	.loc 3 439 14
	movl	(%rax), %eax
	movl	%eax, -16(%rbp)
	.loc 3 440 21
	movq	16(%rbp), %rax
	movq	(%rax), %rax
	.loc 3 440 28
	movl	-4(%rbp), %edx
	movslq	%edx, %rdx
	.loc 3 440 36
	salq	$2, %rdx
	leaq	(%rax,%rdx), %rcx
	.loc 3 440 9
	movq	16(%rbp), %rax
	movq	(%rax), %rax
	.loc 3 440 16
	movl	-8(%rbp), %edx
	movslq	%edx, %rdx
	.loc 3 440 17
	salq	$2, %rdx
	addq	%rax, %rdx
	.loc 3 440 36
	movl	(%rcx), %eax
	.loc 3 440 19
	movl	%eax, (%rdx)
	.loc 3 441 9
	movq	16(%rbp), %rax
	movq	(%rax), %rax
	.loc 3 441 16
	movl	-4(%rbp), %edx
	movslq	%edx, %rdx
	.loc 3 441 24
	salq	$2, %rdx
	addq	%rax, %rdx
	.loc 3 441 26
	movl	-16(%rbp), %eax
	movl	%eax, (%rdx)
.LBE112:
	.loc 3 429 5 discriminator 2
	addl	$1, -8(%rbp)
.L98:
	.loc 3 429 23 discriminator 1
	movl	-8(%rbp), %eax
	cmpl	24(%rbp), %eax
	jl	.L102
.LBE111:
	.loc 3 443 12
	movq	16(%rbp), %rax
	movq	(%rax), %rax
	.loc 3 444 1
	addq	$16, %rsp
	popq	%rbp
	.cfi_restore 6
	.cfi_def_cfa 7, 8
	ret
	.cfi_endproc
.LFE8662:
	.seh_endproc
	.globl	_Z18InsertionSortArrayRPii
	.def	_Z18InsertionSortArrayRPii;	.scl	2;	.type	32;	.endef
	.seh_proc	_Z18InsertionSortArrayRPii
_Z18InsertionSortArrayRPii:
.LFB8663:
	.loc 3 447 1
	.cfi_startproc
	pushq	%rbp
	.seh_pushreg	%rbp
	.cfi_def_cfa_offset 16
	.cfi_offset 6, -16
	movq	%rsp, %rbp
	.seh_setframe	%rbp, 0
	.cfi_def_cfa_register 6
	subq	$16, %rsp
	.seh_stackalloc	16
	.seh_endprologue
	movq	%rcx, 16(%rbp)
	movl	%edx, 24(%rbp)
.LBB114:
	.loc 3 448 14
	movl	$1, -4(%rbp)
	.loc 3 448 5
	jmp	.L105
.L109:
.LBB115:
	.loc 3 450 22
	movq	16(%rbp), %rax
	movq	(%rax), %rax
	.loc 3 450 29
	movl	-4(%rbp), %edx
	movslq	%edx, %rdx
	.loc 3 450 30
	salq	$2, %rdx
	addq	%rdx, %rax
	.loc 3 450 13
	movl	(%rax), %eax
	movl	%eax, -12(%rbp)
	.loc 3 453 16
	movl	-4(%rbp), %eax
	subl	$1, %eax
	movl	%eax, -8(%rbp)
	.loc 3 453 9
	jmp	.L106
.L108:
	.loc 3 455 29
	movq	16(%rbp), %rax
	movq	(%rax), %rax
	.loc 3 455 36
	movl	-8(%rbp), %edx
	movslq	%edx, %rdx
	.loc 3 455 37
	salq	$2, %rdx
	leaq	(%rax,%rdx), %rcx
	.loc 3 455 13
	movq	16(%rbp), %rax
	movq	(%rax), %rax
	.loc 3 455 25
	movl	-8(%rbp), %edx
	movslq	%edx, %rdx
	addq	$1, %rdx
	salq	$2, %rdx
	addq	%rax, %rdx
	.loc 3 455 37
	movl	(%rcx), %eax
	.loc 3 455 27
	movl	%eax, (%rdx)
	.loc 3 453 9 discriminator 4
	subl	$1, -8(%rbp)
.L106:
	.loc 3 453 32 discriminator 1
	cmpl	$0, -8(%rbp)
	js	.L107
	.loc 3 453 35 discriminator 3
	movq	16(%rbp), %rax
	movq	(%rax), %rax
	.loc 3 453 42 discriminator 3
	movl	-8(%rbp), %edx
	movslq	%edx, %rdx
	.loc 3 453 43 discriminator 3
	salq	$2, %rdx
	addq	%rdx, %rax
	movl	(%rax), %eax
	.loc 3 453 32 discriminator 3
	cmpl	%eax, -12(%rbp)
	jl	.L108
.L107:
	.loc 3 457 9
	movq	16(%rbp), %rax
	movq	(%rax), %rax
	.loc 3 457 21
	movl	-8(%rbp), %edx
	movslq	%edx, %rdx
	addq	$1, %rdx
	salq	$2, %rdx
	addq	%rax, %rdx
	.loc 3 457 23
	movl	-12(%rbp), %eax
	movl	%eax, (%rdx)
.LBE115:
	.loc 3 448 5 discriminator 2
	addl	$1, -4(%rbp)
.L105:
	.loc 3 448 23 discriminator 1
	movl	-4(%rbp), %eax
	cmpl	24(%rbp), %eax
	jl	.L109
.LBE114:
	.loc 3 459 12
	movq	16(%rbp), %rax
	movq	(%rax), %rax
	.loc 3 460 1
	addq	$16, %rsp
	popq	%rbp
	.cfi_restore 6
	.cfi_def_cfa 7, 8
	ret
	.cfi_endproc
.LFE8663:
	.seh_endproc
	.globl	_Z10PrintArrayPii
	.def	_Z10PrintArrayPii;	.scl	2;	.type	32;	.endef
	.seh_proc	_Z10PrintArrayPii
_Z10PrintArrayPii:
.LFB8664:
	.loc 3 463 1
	.cfi_startproc
	pushq	%rbp
	.seh_pushreg	%rbp
	.cfi_def_cfa_offset 16
	.cfi_offset 6, -16
	movq	%rsp, %rbp
	.seh_setframe	%rbp, 0
	.cfi_def_cfa_register 6
	subq	$48, %rsp
	.seh_stackalloc	48
	.seh_endprologue
	movq	%rcx, 16(%rbp)
	movl	%edx, 24(%rbp)
	.loc 3 464 5
	cmpq	$0, 16(%rbp)
	je	.L116
.LBB116:
	.loc 3 468 14
	movl	$0, -4(%rbp)
	.loc 3 468 5
	jmp	.L114
.L115:
	.loc 3 470 29
	movl	-4(%rbp), %eax
	cltq
	.loc 3 470 30
	leaq	0(,%rax,4), %rdx
	movq	16(%rbp), %rax
	addq	%rdx, %rax
	.loc 3 470 35
	movl	(%rax), %eax
	movl	%eax, %edx
	movq	.refptr._ZSt4cout(%rip), %rax
	movq	%rax, %rcx
	call	_ZNSolsEi
	.loc 3 470 35 is_stmt 0 discriminator 1
	movl	$32, %edx
	movq	%rax, %rcx
	call	_ZStlsISt11char_traitsIcEERSt13basic_ostreamIcT_ES5_c
	.loc 3 468 5 is_stmt 1 discriminator 3
	addl	$1, -4(%rbp)
.L114:
	.loc 3 468 23 discriminator 1
	movl	-4(%rbp), %eax
	cmpl	24(%rbp), %eax
	jl	.L115
.LBE116:
	.loc 3 472 23
	movq	.refptr._ZSt4endlIcSt11char_traitsIcEERSt13basic_ostreamIT_T0_ES6_(%rip), %rax
	movq	%rax, %rdx
	movq	.refptr._ZSt4cout(%rip), %rax
	movq	%rax, %rcx
	call	_ZNSolsEPFRSoS_E
	jmp	.L111
.L116:
	.loc 3 466 9
	nop
.L111:
	.loc 3 473 1
	addq	$48, %rsp
	popq	%rbp
	.cfi_restore 6
	.cfi_def_cfa 7, 8
	ret
	.cfi_endproc
.LFE8664:
	.seh_endproc
	.section .rdata,"dr"
.LC20:
	.ascii "\12 List Time Auto Test\12\0"
.LC21:
	.ascii " | \0"
.LC22:
	.ascii "   \0"
.LC23:
	.ascii "Best case\0"
.LC24:
	.ascii "Average case\0"
.LC25:
	.ascii "Worst case\0"
.LC26:
	.ascii "Count\0"
.LC27:
	.ascii "Bubble\0"
.LC28:
	.ascii "Selection\0"
.LC29:
	.ascii "Insertion\0"
	.text
	.globl	_Z12listAutoTesti
	.def	_Z12listAutoTesti;	.scl	2;	.type	32;	.endef
	.seh_proc	_Z12listAutoTesti
_Z12listAutoTesti:
.LFB8665:
	.loc 3 476 1
	.cfi_startproc
	pushq	%rbp
	.seh_pushreg	%rbp
	.cfi_def_cfa_offset 16
	.cfi_offset 6, -16
	pushq	%rbx
	.seh_pushreg	%rbx
	.cfi_def_cfa_offset 24
	.cfi_offset 3, -24
	subq	$216, %rsp
	.seh_stackalloc	216
	.cfi_def_cfa_offset 240
	leaq	208(%rsp), %rbp
	.seh_setframe	%rbp, 208
	.cfi_def_cfa 6, 32
	.seh_endprologue
	movl	%ecx, 32(%rbp)
	.loc 3 477 18
	leaq	.LC20(%rip), %rax
	movq	%rax, %rdx
	movq	.refptr._ZSt4cout(%rip), %rax
	movq	%rax, %rcx
.LEHB0:
	call	_ZStlsISt11char_traitsIcEERSt13basic_ostreamIcT_ES5_PKc
.LEHE0:
	.loc 3 478 15
	movl	$12, -8(%rbp)
	leaq	-129(%rbp), %rax
	movq	%rax, -24(%rbp)
.LBB117:
.LBB118:
.LBB119:
.LBB120:
.LBB121:
	.file 4 "C:/mingw64/include/c++/14.2.0/bits/new_allocator.h"
	.loc 4 88 49
	nop
.LBE121:
.LBE120:
.LBE119:
	.file 5 "C:/mingw64/include/c++/14.2.0/bits/allocator.h"
	.loc 5 161 38
	nop
.LBE118:
.LBE117:
	.loc 3 480 50 discriminator 1
	leaq	-129(%rbp), %rdx
	leaq	-176(%rbp), %rax
	movq	%rdx, %r9
	movl	$45, %r8d
	movl	$143, %edx
	movq	%rax, %rcx
.LEHB1:
	call	_ZNSt7__cxx1112basic_stringIcSt11char_traitsIcESaIcEEC1IS3_EEycRKS3_
.LEHE1:
	.loc 3 480 50 is_stmt 0 discriminator 2
	leaq	-176(%rbp), %rax
	movq	%rax, %rdx
	movq	.refptr._ZSt4cout(%rip), %rax
	movq	%rax, %rcx
.LEHB2:
	call	_ZStlsIcSt11char_traitsIcESaIcEERSt13basic_ostreamIT_T0_ES7_RKNSt7__cxx1112basic_stringIS4_S5_T1_EE
	movq	%rax, %rcx
	.loc 3 480 60 is_stmt 1 discriminator 4
	movq	.refptr._ZSt4endlIcSt11char_traitsIcEERSt13basic_ostreamIT_T0_ES6_(%rip), %rax
	movq	%rax, %rdx
	call	_ZNSolsEPFRSoS_E
.LEHE2:
	.loc 3 480 23 discriminator 6
	leaq	-176(%rbp), %rax
	movq	%rax, %rcx
	call	_ZNSt7__cxx1112basic_stringIcSt11char_traitsIcESaIcEED1Ev
.LBB122:
.LBB123:
.LBB124:
	.loc 5 182 39
	leaq	-129(%rbp), %rax
	movq	%rax, %rcx
	call	_ZNSt15__new_allocatorIcED2Ev
.LBE124:
	nop
.LBE123:
.LBE122:
	.loc 3 485 106
	movl	$6, %ecx
	call	_ZSt4setwi
	.loc 3 485 106 is_stmt 0 discriminator 1
	movl	%eax, %edx
	movq	.refptr._ZSt4cout(%rip), %rax
	movq	%rax, %rcx
	call	_ZStlsIcSt11char_traitsIcEERSt13basic_ostreamIT_T0_ES6_St5_Setw
	.loc 3 485 106 discriminator 2
	movl	$32, %edx
	movq	%rax, %rcx
.LEHB3:
	call	_ZStlsISt11char_traitsIcEERSt13basic_ostreamIcT_ES5_c
	movq	%rax, %rcx
	.loc 3 485 106 discriminator 3
	leaq	.LC21(%rip), %rax
	movq	%rax, %rdx
	call	_ZStlsISt11char_traitsIcEERSt13basic_ostreamIcT_ES5_PKc
	movq	%rax, %rbx
	.loc 3 485 106 discriminator 4
	movl	$12, %ecx
	call	_ZSt4setwi
	.loc 3 485 106 discriminator 5
	movl	%eax, %edx
	movq	%rbx, %rcx
	call	_ZStlsIcSt11char_traitsIcEERSt13basic_ostreamIT_T0_ES6_St5_Setw
	.loc 3 485 106 discriminator 6
	movl	$32, %edx
	movq	%rax, %rcx
	call	_ZStlsISt11char_traitsIcEERSt13basic_ostreamIcT_ES5_c
	movq	%rax, %rcx
	.loc 3 485 106 discriminator 7
	leaq	.LC22(%rip), %rax
	movq	%rax, %rdx
	call	_ZStlsISt11char_traitsIcEERSt13basic_ostreamIcT_ES5_PKc
	movq	%rax, %rbx
	.loc 3 485 106 discriminator 8
	movl	$12, %ecx
	call	_ZSt4setwi
	.loc 3 485 106 discriminator 9
	movl	%eax, %edx
	movq	%rbx, %rcx
	call	_ZStlsIcSt11char_traitsIcEERSt13basic_ostreamIT_T0_ES6_St5_Setw
	movq	%rax, %rcx
	.loc 3 485 106 discriminator 10
	leaq	.LC23(%rip), %rax
	movq	%rax, %rdx
	call	_ZStlsISt11char_traitsIcEERSt13basic_ostreamIcT_ES5_PKc
	movq	%rax, %rcx
	.loc 3 485 106 discriminator 11
	leaq	.LC22(%rip), %rax
	movq	%rax, %rdx
	call	_ZStlsISt11char_traitsIcEERSt13basic_ostreamIcT_ES5_PKc
	movq	%rax, %rbx
	.loc 3 485 106 discriminator 12
	movl	$12, %ecx
	call	_ZSt4setwi
	.loc 3 485 106 discriminator 13
	movl	%eax, %edx
	movq	%rbx, %rcx
	call	_ZStlsIcSt11char_traitsIcEERSt13basic_ostreamIT_T0_ES6_St5_Setw
	.loc 3 485 106 discriminator 14
	movl	$32, %edx
	movq	%rax, %rcx
	call	_ZStlsISt11char_traitsIcEERSt13basic_ostreamIcT_ES5_c
	movq	%rax, %rcx
	.loc 3 485 106 discriminator 15
	leaq	.LC21(%rip), %rax
	movq	%rax, %rdx
	call	_ZStlsISt11char_traitsIcEERSt13basic_ostreamIcT_ES5_PKc
	movq	%rax, %rbx
	.loc 3 485 106 discriminator 16
	movl	$12, %ecx
	call	_ZSt4setwi
	.loc 3 485 106 discriminator 17
	movl	%eax, %edx
	movq	%rbx, %rcx
	call	_ZStlsIcSt11char_traitsIcEERSt13basic_ostreamIT_T0_ES6_St5_Setw
	.loc 3 485 106 discriminator 18
	movl	$32, %edx
	movq	%rax, %rcx
	call	_ZStlsISt11char_traitsIcEERSt13basic_ostreamIcT_ES5_c
	movq	%rax, %rcx
	.loc 3 485 106 discriminator 19
	leaq	.LC22(%rip), %rax
	movq	%rax, %rdx
	call	_ZStlsISt11char_traitsIcEERSt13basic_ostreamIcT_ES5_PKc
	movq	%rax, %rbx
	.loc 3 485 106 discriminator 20
	movl	$12, %ecx
	call	_ZSt4setwi
	.loc 3 485 106 discriminator 21
	movl	%eax, %edx
	movq	%rbx, %rcx
	call	_ZStlsIcSt11char_traitsIcEERSt13basic_ostreamIT_T0_ES6_St5_Setw
	movq	%rax, %rcx
	.loc 3 485 106 discriminator 22
	leaq	.LC24(%rip), %rax
	movq	%rax, %rdx
	call	_ZStlsISt11char_traitsIcEERSt13basic_ostreamIcT_ES5_PKc
	movq	%rax, %rcx
	.loc 3 485 106 discriminator 23
	leaq	.LC22(%rip), %rax
	movq	%rax, %rdx
	call	_ZStlsISt11char_traitsIcEERSt13basic_ostreamIcT_ES5_PKc
	movq	%rax, %rbx
	.loc 3 485 106 discriminator 24
	movl	$12, %ecx
	call	_ZSt4setwi
	.loc 3 485 106 discriminator 25
	movl	%eax, %edx
	movq	%rbx, %rcx
	call	_ZStlsIcSt11char_traitsIcEERSt13basic_ostreamIT_T0_ES6_St5_Setw
	.loc 3 485 106 discriminator 26
	movl	$32, %edx
	movq	%rax, %rcx
	call	_ZStlsISt11char_traitsIcEERSt13basic_ostreamIcT_ES5_c
	movq	%rax, %rcx
	.loc 3 485 106 discriminator 27
	leaq	.LC21(%rip), %rax
	movq	%rax, %rdx
	call	_ZStlsISt11char_traitsIcEERSt13basic_ostreamIcT_ES5_PKc
	movq	%rax, %rbx
	.loc 3 485 106 discriminator 28
	movl	$12, %ecx
	call	_ZSt4setwi
	.loc 3 485 106 discriminator 29
	movl	%eax, %edx
	movq	%rbx, %rcx
	call	_ZStlsIcSt11char_traitsIcEERSt13basic_ostreamIT_T0_ES6_St5_Setw
	.loc 3 485 106 discriminator 30
	movl	$32, %edx
	movq	%rax, %rcx
	call	_ZStlsISt11char_traitsIcEERSt13basic_ostreamIcT_ES5_c
	movq	%rax, %rcx
	.loc 3 485 106 discriminator 31
	leaq	.LC22(%rip), %rax
	movq	%rax, %rdx
	call	_ZStlsISt11char_traitsIcEERSt13basic_ostreamIcT_ES5_PKc
	movq	%rax, %rbx
	.loc 3 485 106 discriminator 32
	movl	$12, %ecx
	call	_ZSt4setwi
	.loc 3 485 106 discriminator 33
	movl	%eax, %edx
	movq	%rbx, %rcx
	call	_ZStlsIcSt11char_traitsIcEERSt13basic_ostreamIT_T0_ES6_St5_Setw
	movq	%rax, %rcx
	.loc 3 485 106 discriminator 34
	leaq	.LC25(%rip), %rax
	movq	%rax, %rdx
	call	_ZStlsISt11char_traitsIcEERSt13basic_ostreamIcT_ES5_PKc
	movq	%rax, %rcx
	.loc 3 485 106 discriminator 35
	leaq	.LC22(%rip), %rax
	movq	%rax, %rdx
	call	_ZStlsISt11char_traitsIcEERSt13basic_ostreamIcT_ES5_PKc
	movq	%rax, %rbx
	.loc 3 485 106 discriminator 36
	movl	$12, %ecx
	call	_ZSt4setwi
	.loc 3 485 106 discriminator 37
	movl	%eax, %edx
	movq	%rbx, %rcx
	call	_ZStlsIcSt11char_traitsIcEERSt13basic_ostreamIT_T0_ES6_St5_Setw
	.loc 3 485 106 discriminator 38
	movl	$32, %edx
	movq	%rax, %rcx
	call	_ZStlsISt11char_traitsIcEERSt13basic_ostreamIcT_ES5_c
	movq	%rax, %rcx
	.loc 3 485 106 discriminator 39
	leaq	.LC21(%rip), %rax
	movq	%rax, %rdx
	call	_ZStlsISt11char_traitsIcEERSt13basic_ostreamIcT_ES5_PKc
	movq	%rax, %rcx
	.loc 3 486 23 is_stmt 1
	movq	.refptr._ZSt4endlIcSt11char_traitsIcEERSt13basic_ostreamIT_T0_ES6_(%rip), %rax
	movq	%rax, %rdx
	call	_ZNSolsEPFRSoS_E
	.loc 3 493 53
	movl	$6, %ecx
	call	_ZSt4setwi
	.loc 3 493 53 is_stmt 0 discriminator 1
	movl	%eax, %edx
	movq	.refptr._ZSt4cout(%rip), %rax
	movq	%rax, %rcx
	call	_ZStlsIcSt11char_traitsIcEERSt13basic_ostreamIT_T0_ES6_St5_Setw
	movq	%rax, %rcx
	.loc 3 493 53 discriminator 2
	leaq	.LC26(%rip), %rax
	movq	%rax, %rdx
	call	_ZStlsISt11char_traitsIcEERSt13basic_ostreamIcT_ES5_PKc
	movq	%rax, %rcx
	.loc 3 493 53 discriminator 3
	leaq	.LC21(%rip), %rax
	movq	%rax, %rdx
	call	_ZStlsISt11char_traitsIcEERSt13basic_ostreamIcT_ES5_PKc
	movq	%rax, %rbx
	.loc 3 493 53 discriminator 4
	movl	$12, %ecx
	call	_ZSt4setwi
	.loc 3 493 53 discriminator 5
	movl	%eax, %edx
	movq	%rbx, %rcx
	call	_ZStlsIcSt11char_traitsIcEERSt13basic_ostreamIT_T0_ES6_St5_Setw
	movq	%rax, %rcx
	.loc 3 493 53 discriminator 6
	leaq	.LC27(%rip), %rax
	movq	%rax, %rdx
	call	_ZStlsISt11char_traitsIcEERSt13basic_ostreamIcT_ES5_PKc
	movq	%rax, %rcx
	.loc 3 493 53 discriminator 7
	leaq	.LC21(%rip), %rax
	movq	%rax, %rdx
	call	_ZStlsISt11char_traitsIcEERSt13basic_ostreamIcT_ES5_PKc
	movq	%rax, %rbx
	.loc 3 493 53 discriminator 8
	movl	$12, %ecx
	call	_ZSt4setwi
	.loc 3 493 53 discriminator 9
	movl	%eax, %edx
	movq	%rbx, %rcx
	call	_ZStlsIcSt11char_traitsIcEERSt13basic_ostreamIT_T0_ES6_St5_Setw
	movq	%rax, %rcx
	.loc 3 493 53 discriminator 10
	leaq	.LC28(%rip), %rax
	movq	%rax, %rdx
	call	_ZStlsISt11char_traitsIcEERSt13basic_ostreamIcT_ES5_PKc
	movq	%rax, %rcx
	.loc 3 493 53 discriminator 11
	leaq	.LC21(%rip), %rax
	movq	%rax, %rdx
	call	_ZStlsISt11char_traitsIcEERSt13basic_ostreamIcT_ES5_PKc
	movq	%rax, %rbx
	.loc 3 493 53 discriminator 12
	movl	$12, %ecx
	call	_ZSt4setwi
	.loc 3 493 53 discriminator 13
	movl	%eax, %edx
	movq	%rbx, %rcx
	call	_ZStlsIcSt11char_traitsIcEERSt13basic_ostreamIT_T0_ES6_St5_Setw
	movq	%rax, %rcx
	.loc 3 493 53 discriminator 14
	leaq	.LC29(%rip), %rax
	movq	%rax, %rdx
	call	_ZStlsISt11char_traitsIcEERSt13basic_ostreamIcT_ES5_PKc
	movq	%rax, %rcx
	.loc 3 493 53 discriminator 15
	leaq	.LC21(%rip), %rax
	movq	%rax, %rdx
	call	_ZStlsISt11char_traitsIcEERSt13basic_ostreamIcT_ES5_PKc
	movq	%rax, %rbx
	.loc 3 493 53 discriminator 16
	movl	$12, %ecx
	call	_ZSt4setwi
	.loc 3 493 53 discriminator 17
	movl	%eax, %edx
	movq	%rbx, %rcx
	call	_ZStlsIcSt11char_traitsIcEERSt13basic_ostreamIT_T0_ES6_St5_Setw
	movq	%rax, %rcx
	.loc 3 493 53 discriminator 18
	leaq	.LC27(%rip), %rax
	movq	%rax, %rdx
	call	_ZStlsISt11char_traitsIcEERSt13basic_ostreamIcT_ES5_PKc
	movq	%rax, %rcx
	.loc 3 493 53 discriminator 19
	leaq	.LC21(%rip), %rax
	movq	%rax, %rdx
	call	_ZStlsISt11char_traitsIcEERSt13basic_ostreamIcT_ES5_PKc
	movq	%rax, %rbx
	.loc 3 493 53 discriminator 20
	movl	$12, %ecx
	call	_ZSt4setwi
	.loc 3 493 53 discriminator 21
	movl	%eax, %edx
	movq	%rbx, %rcx
	call	_ZStlsIcSt11char_traitsIcEERSt13basic_ostreamIT_T0_ES6_St5_Setw
	movq	%rax, %rcx
	.loc 3 493 53 discriminator 22
	leaq	.LC28(%rip), %rax
	movq	%rax, %rdx
	call	_ZStlsISt11char_traitsIcEERSt13basic_ostreamIcT_ES5_PKc
	movq	%rax, %rcx
	.loc 3 493 53 discriminator 23
	leaq	.LC21(%rip), %rax
	movq	%rax, %rdx
	call	_ZStlsISt11char_traitsIcEERSt13basic_ostreamIcT_ES5_PKc
	movq	%rax, %rbx
	.loc 3 493 53 discriminator 24
	movl	$12, %ecx
	call	_ZSt4setwi
	.loc 3 493 53 discriminator 25
	movl	%eax, %edx
	movq	%rbx, %rcx
	call	_ZStlsIcSt11char_traitsIcEERSt13basic_ostreamIT_T0_ES6_St5_Setw
	movq	%rax, %rcx
	.loc 3 493 53 discriminator 26
	leaq	.LC29(%rip), %rax
	movq	%rax, %rdx
	call	_ZStlsISt11char_traitsIcEERSt13basic_ostreamIcT_ES5_PKc
	movq	%rax, %rcx
	.loc 3 493 53 discriminator 27
	leaq	.LC21(%rip), %rax
	movq	%rax, %rdx
	call	_ZStlsISt11char_traitsIcEERSt13basic_ostreamIcT_ES5_PKc
	movq	%rax, %rbx
	.loc 3 493 53 discriminator 28
	movl	$12, %ecx
	call	_ZSt4setwi
	.loc 3 493 53 discriminator 29
	movl	%eax, %edx
	movq	%rbx, %rcx
	call	_ZStlsIcSt11char_traitsIcEERSt13basic_ostreamIT_T0_ES6_St5_Setw
	movq	%rax, %rcx
	.loc 3 493 53 discriminator 30
	leaq	.LC27(%rip), %rax
	movq	%rax, %rdx
	call	_ZStlsISt11char_traitsIcEERSt13basic_ostreamIcT_ES5_PKc
	movq	%rax, %rcx
	.loc 3 493 53 discriminator 31
	leaq	.LC21(%rip), %rax
	movq	%rax, %rdx
	call	_ZStlsISt11char_traitsIcEERSt13basic_ostreamIcT_ES5_PKc
	movq	%rax, %rbx
	.loc 3 493 53 discriminator 32
	movl	$12, %ecx
	call	_ZSt4setwi
	.loc 3 493 53 discriminator 33
	movl	%eax, %edx
	movq	%rbx, %rcx
	call	_ZStlsIcSt11char_traitsIcEERSt13basic_ostreamIT_T0_ES6_St5_Setw
	movq	%rax, %rcx
	.loc 3 493 53 discriminator 34
	leaq	.LC28(%rip), %rax
	movq	%rax, %rdx
	call	_ZStlsISt11char_traitsIcEERSt13basic_ostreamIcT_ES5_PKc
	movq	%rax, %rcx
	.loc 3 493 53 discriminator 35
	leaq	.LC21(%rip), %rax
	movq	%rax, %rdx
	call	_ZStlsISt11char_traitsIcEERSt13basic_ostreamIcT_ES5_PKc
	movq	%rax, %rbx
	.loc 3 493 53 discriminator 36
	movl	$12, %ecx
	call	_ZSt4setwi
	.loc 3 493 53 discriminator 37
	movl	%eax, %edx
	movq	%rbx, %rcx
	call	_ZStlsIcSt11char_traitsIcEERSt13basic_ostreamIT_T0_ES6_St5_Setw
	movq	%rax, %rcx
	.loc 3 493 53 discriminator 38
	leaq	.LC29(%rip), %rax
	movq	%rax, %rdx
	call	_ZStlsISt11char_traitsIcEERSt13basic_ostreamIcT_ES5_PKc
	movq	%rax, %rcx
	.loc 3 493 53 discriminator 39
	leaq	.LC21(%rip), %rax
	movq	%rax, %rdx
	call	_ZStlsISt11char_traitsIcEERSt13basic_ostreamIcT_ES5_PKc
	movq	%rax, %rcx
	.loc 3 493 67 is_stmt 1 discriminator 40
	movq	.refptr._ZSt4endlIcSt11char_traitsIcEERSt13basic_ostreamIT_T0_ES6_(%rip), %rax
	movq	%rax, %rdx
	call	_ZNSolsEPFRSoS_E
.LEHE3:
	leaq	-81(%rbp), %rax
	movq	%rax, -32(%rbp)
.LBB125:
.LBB126:
.LBB127:
.LBB128:
.LBB129:
	.loc 4 88 49
	nop
.LBE129:
.LBE128:
.LBE127:
	.loc 5 161 38
	nop
.LBE126:
.LBE125:
	.loc 3 496 50 discriminator 1
	leaq	-81(%rbp), %rdx
	leaq	-128(%rbp), %rax
	movq	%rdx, %r9
	movl	$45, %r8d
	movl	$143, %edx
	movq	%rax, %rcx
.LEHB4:
	call	_ZNSt7__cxx1112basic_stringIcSt11char_traitsIcESaIcEEC1IS3_EEycRKS3_
.LEHE4:
	.loc 3 496 50 is_stmt 0 discriminator 2
	leaq	-128(%rbp), %rax
	movq	%rax, %rdx
	movq	.refptr._ZSt4cout(%rip), %rax
	movq	%rax, %rcx
.LEHB5:
	call	_ZStlsIcSt11char_traitsIcESaIcEERSt13basic_ostreamIT_T0_ES7_RKNSt7__cxx1112basic_stringIS4_S5_T1_EE
	movq	%rax, %rcx
	.loc 3 496 60 is_stmt 1 discriminator 4
	movq	.refptr._ZSt4endlIcSt11char_traitsIcEERSt13basic_ostreamIT_T0_ES6_(%rip), %rax
	movq	%rax, %rdx
	call	_ZNSolsEPFRSoS_E
.LEHE5:
	.loc 3 496 23 discriminator 6
	leaq	-128(%rbp), %rax
	movq	%rax, %rcx
	call	_ZNSt7__cxx1112basic_stringIcSt11char_traitsIcESaIcEED1Ev
.LBB130:
.LBB131:
.LBB132:
	.loc 5 182 39
	leaq	-81(%rbp), %rax
	movq	%rax, %rcx
	call	_ZNSt15__new_allocatorIcED2Ev
.LBE132:
	nop
.LBE131:
.LBE130:
.LBB133:
	.loc 3 497 14
	movl	$100, -4(%rbp)
	.loc 3 497 5
	jmp	.L118
.L119:
.LBB134:
	.loc 3 499 13
	movl	-4(%rbp), %eax
	movl	%eax, -12(%rbp)
	.loc 3 500 41
	movl	$6, %ecx
	call	_ZSt4setwi
	.loc 3 500 41 is_stmt 0 discriminator 1
	movl	%eax, %edx
	movq	.refptr._ZSt4cout(%rip), %rax
	movq	%rax, %rcx
	call	_ZStlsIcSt11char_traitsIcEERSt13basic_ostreamIT_T0_ES6_St5_Setw
	movq	%rax, %rcx
	.loc 3 500 75 is_stmt 1 discriminator 2
	movl	-4(%rbp), %eax
	movl	%eax, %edx
.LEHB6:
	call	_ZNSolsEi
	movq	%rax, %rcx
	.loc 3 500 75 is_stmt 0 discriminator 3
	leaq	.LC21(%rip), %rax
	movq	%rax, %rdx
	call	_ZStlsISt11char_traitsIcEERSt13basic_ostreamIcT_ES5_PKc
	movq	%rax, %rbx
	.loc 3 500 75 discriminator 4
	movl	$12, %ecx
	call	_ZSt4setwi
	.loc 3 500 75 discriminator 5
	movl	%eax, %edx
	movq	%rbx, %rcx
	call	_ZStlsIcSt11char_traitsIcEERSt13basic_ostreamIT_T0_ES6_St5_Setw
	movq	%rax, %rbx
	.loc 3 501 80 is_stmt 1
	movl	-12(%rbp), %eax
	movl	%eax, %r8d
	leaq	_Z16FillListBestCaseRP4Nodei(%rip), %rax
	movq	%rax, %rdx
	leaq	_Z14BubbleSortListP4Node(%rip), %rax
	movq	%rax, %rcx
	call	_Z19autoSortTestForListPFP4NodeS0_EPFvRS0_iEi
	.loc 3 501 80 is_stmt 0 discriminator 1
	movq	%rax, %rdx
	movq	%rbx, %rcx
	call	_ZNSolsEx
	movq	%rax, %rcx
	.loc 3 501 109 is_stmt 1 discriminator 2
	leaq	.LC21(%rip), %rax
	movq	%rax, %rdx
	call	_ZStlsISt11char_traitsIcEERSt13basic_ostreamIcT_ES5_PKc
	movq	%rax, %rbx
	.loc 3 501 109 is_stmt 0 discriminator 3
	movl	$12, %ecx
	call	_ZSt4setwi
	.loc 3 501 109 discriminator 4
	movl	%eax, %edx
	movq	%rbx, %rcx
	call	_ZStlsIcSt11char_traitsIcEERSt13basic_ostreamIT_T0_ES6_St5_Setw
	movq	%rax, %rbx
	.loc 3 502 83 is_stmt 1
	movl	-12(%rbp), %eax
	movl	%eax, %r8d
	leaq	_Z16FillListBestCaseRP4Nodei(%rip), %rax
	movq	%rax, %rdx
	leaq	_Z17SelectionSortListP4Node(%rip), %rax
	movq	%rax, %rcx
	call	_Z19autoSortTestForListPFP4NodeS0_EPFvRS0_iEi
	.loc 3 502 83 is_stmt 0 discriminator 1
	movq	%rax, %rdx
	movq	%rbx, %rcx
	call	_ZNSolsEx
	movq	%rax, %rcx
	.loc 3 502 112 is_stmt 1 discriminator 2
	leaq	.LC21(%rip), %rax
	movq	%rax, %rdx
	call	_ZStlsISt11char_traitsIcEERSt13basic_ostreamIcT_ES5_PKc
	movq	%rax, %rbx
	.loc 3 502 112 is_stmt 0 discriminator 3
	movl	$12, %ecx
	call	_ZSt4setwi
	.loc 3 502 112 discriminator 4
	movl	%eax, %edx
	movq	%rbx, %rcx
	call	_ZStlsIcSt11char_traitsIcEERSt13basic_ostreamIT_T0_ES6_St5_Setw
	movq	%rax, %rbx
	.loc 3 503 83 is_stmt 1
	movl	-12(%rbp), %eax
	movl	%eax, %r8d
	leaq	_Z16FillListBestCaseRP4Nodei(%rip), %rax
	movq	%rax, %rdx
	leaq	_Z17InsertionSortListP4Node(%rip), %rax
	movq	%rax, %rcx
	call	_Z19autoSortTestForListPFP4NodeS0_EPFvRS0_iEi
	.loc 3 503 83 is_stmt 0 discriminator 1
	movq	%rax, %rdx
	movq	%rbx, %rcx
	call	_ZNSolsEx
	movq	%rax, %rcx
	.loc 3 503 112 is_stmt 1 discriminator 2
	leaq	.LC21(%rip), %rax
	movq	%rax, %rdx
	call	_ZStlsISt11char_traitsIcEERSt13basic_ostreamIcT_ES5_PKc
	movq	%rax, %rbx
	.loc 3 503 112 is_stmt 0 discriminator 3
	movl	$12, %ecx
	call	_ZSt4setwi
	.loc 3 503 112 discriminator 4
	movl	%eax, %edx
	movq	%rbx, %rcx
	call	_ZStlsIcSt11char_traitsIcEERSt13basic_ostreamIT_T0_ES6_St5_Setw
	movq	%rax, %rbx
	.loc 3 504 82 is_stmt 1
	movl	-12(%rbp), %eax
	movl	%eax, %r8d
	leaq	_Z18FillListMiddleCaseRP4Nodei(%rip), %rax
	movq	%rax, %rdx
	leaq	_Z14BubbleSortListP4Node(%rip), %rax
	movq	%rax, %rcx
	call	_Z19autoSortTestForListPFP4NodeS0_EPFvRS0_iEi
	.loc 3 504 82 is_stmt 0 discriminator 1
	movq	%rax, %rdx
	movq	%rbx, %rcx
	call	_ZNSolsEx
	movq	%rax, %rcx
	.loc 3 504 111 is_stmt 1 discriminator 2
	leaq	.LC21(%rip), %rax
	movq	%rax, %rdx
	call	_ZStlsISt11char_traitsIcEERSt13basic_ostreamIcT_ES5_PKc
	movq	%rax, %rbx
	.loc 3 504 111 is_stmt 0 discriminator 3
	movl	$12, %ecx
	call	_ZSt4setwi
	.loc 3 504 111 discriminator 4
	movl	%eax, %edx
	movq	%rbx, %rcx
	call	_ZStlsIcSt11char_traitsIcEERSt13basic_ostreamIT_T0_ES6_St5_Setw
	movq	%rax, %rbx
	.loc 3 505 85 is_stmt 1
	movl	-12(%rbp), %eax
	movl	%eax, %r8d
	leaq	_Z18FillListMiddleCaseRP4Nodei(%rip), %rax
	movq	%rax, %rdx
	leaq	_Z17SelectionSortListP4Node(%rip), %rax
	movq	%rax, %rcx
	call	_Z19autoSortTestForListPFP4NodeS0_EPFvRS0_iEi
	.loc 3 505 85 is_stmt 0 discriminator 1
	movq	%rax, %rdx
	movq	%rbx, %rcx
	call	_ZNSolsEx
	movq	%rax, %rcx
	.loc 3 505 114 is_stmt 1 discriminator 2
	leaq	.LC21(%rip), %rax
	movq	%rax, %rdx
	call	_ZStlsISt11char_traitsIcEERSt13basic_ostreamIcT_ES5_PKc
	movq	%rax, %rbx
	.loc 3 505 114 is_stmt 0 discriminator 3
	movl	$12, %ecx
	call	_ZSt4setwi
	.loc 3 505 114 discriminator 4
	movl	%eax, %edx
	movq	%rbx, %rcx
	call	_ZStlsIcSt11char_traitsIcEERSt13basic_ostreamIT_T0_ES6_St5_Setw
	movq	%rax, %rbx
	.loc 3 506 85 is_stmt 1
	movl	-12(%rbp), %eax
	movl	%eax, %r8d
	leaq	_Z18FillListMiddleCaseRP4Nodei(%rip), %rax
	movq	%rax, %rdx
	leaq	_Z17InsertionSortListP4Node(%rip), %rax
	movq	%rax, %rcx
	call	_Z19autoSortTestForListPFP4NodeS0_EPFvRS0_iEi
	.loc 3 506 85 is_stmt 0 discriminator 1
	movq	%rax, %rdx
	movq	%rbx, %rcx
	call	_ZNSolsEx
	movq	%rax, %rcx
	.loc 3 506 114 is_stmt 1 discriminator 2
	leaq	.LC21(%rip), %rax
	movq	%rax, %rdx
	call	_ZStlsISt11char_traitsIcEERSt13basic_ostreamIcT_ES5_PKc
	movq	%rax, %rbx
	.loc 3 506 114 is_stmt 0 discriminator 3
	movl	$12, %ecx
	call	_ZSt4setwi
	.loc 3 506 114 discriminator 4
	movl	%eax, %edx
	movq	%rbx, %rcx
	call	_ZStlsIcSt11char_traitsIcEERSt13basic_ostreamIT_T0_ES6_St5_Setw
	movq	%rax, %rbx
	.loc 3 507 79 is_stmt 1
	movl	-12(%rbp), %eax
	movl	%eax, %r8d
	leaq	_Z15FillListBadCaseRP4Nodei(%rip), %rax
	movq	%rax, %rdx
	leaq	_Z14BubbleSortListP4Node(%rip), %rax
	movq	%rax, %rcx
	call	_Z19autoSortTestForListPFP4NodeS0_EPFvRS0_iEi
	.loc 3 507 79 is_stmt 0 discriminator 1
	movq	%rax, %rdx
	movq	%rbx, %rcx
	call	_ZNSolsEx
	movq	%rax, %rcx
	.loc 3 507 108 is_stmt 1 discriminator 2
	leaq	.LC21(%rip), %rax
	movq	%rax, %rdx
	call	_ZStlsISt11char_traitsIcEERSt13basic_ostreamIcT_ES5_PKc
	movq	%rax, %rbx
	.loc 3 507 108 is_stmt 0 discriminator 3
	movl	$12, %ecx
	call	_ZSt4setwi
	.loc 3 507 108 discriminator 4
	movl	%eax, %edx
	movq	%rbx, %rcx
	call	_ZStlsIcSt11char_traitsIcEERSt13basic_ostreamIT_T0_ES6_St5_Setw
	movq	%rax, %rbx
	.loc 3 508 82 is_stmt 1
	movl	-12(%rbp), %eax
	movl	%eax, %r8d
	leaq	_Z15FillListBadCaseRP4Nodei(%rip), %rax
	movq	%rax, %rdx
	leaq	_Z17SelectionSortListP4Node(%rip), %rax
	movq	%rax, %rcx
	call	_Z19autoSortTestForListPFP4NodeS0_EPFvRS0_iEi
	.loc 3 508 82 is_stmt 0 discriminator 1
	movq	%rax, %rdx
	movq	%rbx, %rcx
	call	_ZNSolsEx
	movq	%rax, %rcx
	.loc 3 508 111 is_stmt 1 discriminator 2
	leaq	.LC21(%rip), %rax
	movq	%rax, %rdx
	call	_ZStlsISt11char_traitsIcEERSt13basic_ostreamIcT_ES5_PKc
	movq	%rax, %rbx
	.loc 3 508 111 is_stmt 0 discriminator 3
	movl	$12, %ecx
	call	_ZSt4setwi
	.loc 3 508 111 discriminator 4
	movl	%eax, %edx
	movq	%rbx, %rcx
	call	_ZStlsIcSt11char_traitsIcEERSt13basic_ostreamIT_T0_ES6_St5_Setw
	movq	%rax, %rbx
	.loc 3 509 82 is_stmt 1
	movl	-12(%rbp), %eax
	movl	%eax, %r8d
	leaq	_Z15FillListBadCaseRP4Nodei(%rip), %rax
	movq	%rax, %rdx
	leaq	_Z17InsertionSortListP4Node(%rip), %rax
	movq	%rax, %rcx
	call	_Z19autoSortTestForListPFP4NodeS0_EPFvRS0_iEi
	.loc 3 509 82 is_stmt 0 discriminator 1
	movq	%rax, %rdx
	movq	%rbx, %rcx
	call	_ZNSolsEx
	movq	%rax, %rcx
	.loc 3 509 87 is_stmt 1 discriminator 2
	leaq	.LC21(%rip), %rax
	movq	%rax, %rdx
	call	_ZStlsISt11char_traitsIcEERSt13basic_ostreamIcT_ES5_PKc
	movq	%rax, %rcx
	.loc 3 509 101 discriminator 3
	movq	.refptr._ZSt4endlIcSt11char_traitsIcEERSt13basic_ostreamIT_T0_ES6_(%rip), %rax
	movq	%rax, %rdx
	call	_ZNSolsEPFRSoS_E
.LEHE6:
.LBE134:
	.loc 3 497 40 discriminator 3
	movl	TEST_STEP_SIZE(%rip), %eax
	addl	%eax, -4(%rbp)
.L118:
	.loc 3 497 25 discriminator 1
	movl	-4(%rbp), %eax
	cmpl	32(%rbp), %eax
	jle	.L119
	leaq	-41(%rbp), %rax
	movq	%rax, -40(%rbp)
.LBE133:
.LBB135:
.LBB136:
.LBB137:
.LBB138:
.LBB139:
	.loc 4 88 49
	nop
.LBE139:
.LBE138:
.LBE137:
	.loc 5 161 38
	nop
.LBE136:
.LBE135:
	.loc 3 511 50 discriminator 1
	leaq	-41(%rbp), %rdx
	leaq	-80(%rbp), %rax
	movq	%rdx, %r9
	movl	$45, %r8d
	movl	$143, %edx
	movq	%rax, %rcx
.LEHB7:
	call	_ZNSt7__cxx1112basic_stringIcSt11char_traitsIcESaIcEEC1IS3_EEycRKS3_
.LEHE7:
	.loc 3 511 50 is_stmt 0 discriminator 2
	leaq	-80(%rbp), %rax
	movq	%rax, %rdx
	movq	.refptr._ZSt4cout(%rip), %rax
	movq	%rax, %rcx
.LEHB8:
	call	_ZStlsIcSt11char_traitsIcESaIcEERSt13basic_ostreamIT_T0_ES7_RKNSt7__cxx1112basic_stringIS4_S5_T1_EE
	movq	%rax, %rcx
	.loc 3 511 60 is_stmt 1 discriminator 4
	movq	.refptr._ZSt4endlIcSt11char_traitsIcEERSt13basic_ostreamIT_T0_ES6_(%rip), %rax
	movq	%rax, %rdx
	call	_ZNSolsEPFRSoS_E
.LEHE8:
	.loc 3 511 23 discriminator 6
	leaq	-80(%rbp), %rax
	movq	%rax, %rcx
	call	_ZNSt7__cxx1112basic_stringIcSt11char_traitsIcESaIcEED1Ev
.LBB140:
.LBB141:
.LBB142:
	.loc 5 182 39
	leaq	-41(%rbp), %rax
	movq	%rax, %rcx
	call	_ZNSt15__new_allocatorIcED2Ev
.LBE142:
	nop
.LBE141:
.LBE140:
	.loc 3 512 1
	jmp	.L132
.L127:
	.loc 3 480 23 discriminator 5
	movq	%rax, %rbx
	leaq	-176(%rbp), %rax
	movq	%rax, %rcx
	call	_ZNSt7__cxx1112basic_stringIcSt11char_traitsIcESaIcEED1Ev
	jmp	.L121
.L126:
.LBB143:
.LBB144:
.LBB145:
	.loc 5 182 39
	movq	%rax, %rbx
.L121:
	leaq	-129(%rbp), %rax
	movq	%rax, %rcx
	call	_ZNSt15__new_allocatorIcED2Ev
.LBE145:
	nop
	movq	%rbx, %rax
	movq	%rax, %rcx
.LEHB9:
	call	_Unwind_Resume
.L129:
.LBE144:
.LBE143:
	.loc 3 496 23 discriminator 5
	movq	%rax, %rbx
	leaq	-128(%rbp), %rax
	movq	%rax, %rcx
	call	_ZNSt7__cxx1112basic_stringIcSt11char_traitsIcESaIcEED1Ev
	jmp	.L123
.L128:
.LBB146:
.LBB147:
.LBB148:
	.loc 5 182 39
	movq	%rax, %rbx
.L123:
	leaq	-81(%rbp), %rax
	movq	%rax, %rcx
	call	_ZNSt15__new_allocatorIcED2Ev
.LBE148:
	nop
	movq	%rbx, %rax
	movq	%rax, %rcx
	call	_Unwind_Resume
.L131:
.LBE147:
.LBE146:
	.loc 3 511 23 discriminator 5
	movq	%rax, %rbx
	leaq	-80(%rbp), %rax
	movq	%rax, %rcx
	call	_ZNSt7__cxx1112basic_stringIcSt11char_traitsIcESaIcEED1Ev
	jmp	.L125
.L130:
.LBB149:
.LBB150:
.LBB151:
	.loc 5 182 39
	movq	%rax, %rbx
.L125:
	leaq	-41(%rbp), %rax
	movq	%rax, %rcx
	call	_ZNSt15__new_allocatorIcED2Ev
.LBE151:
	nop
	movq	%rbx, %rax
	movq	%rax, %rcx
	call	_Unwind_Resume
	nop
.LEHE9:
.L132:
.LBE150:
.LBE149:
	.loc 3 512 1
	addq	$216, %rsp
	popq	%rbx
	.cfi_restore 3
	popq	%rbp
	.cfi_restore 6
	.cfi_def_cfa 7, -200
	ret
	.cfi_endproc
.LFE8665:
	.seh_handler	__gxx_personality_seh0, @unwind, @except
	.seh_handlerdata
.LLSDA8665:
	.byte	0xff
	.byte	0xff
	.byte	0x1
	.uleb128 .LLSDACSE8665-.LLSDACSB8665
.LLSDACSB8665:
	.uleb128 .LEHB0-.LFB8665
	.uleb128 .LEHE0-.LEHB0
	.uleb128 0
	.uleb128 0
	.uleb128 .LEHB1-.LFB8665
	.uleb128 .LEHE1-.LEHB1
	.uleb128 .L126-.LFB8665
	.uleb128 0
	.uleb128 .LEHB2-.LFB8665
	.uleb128 .LEHE2-.LEHB2
	.uleb128 .L127-.LFB8665
	.uleb128 0
	.uleb128 .LEHB3-.LFB8665
	.uleb128 .LEHE3-.LEHB3
	.uleb128 0
	.uleb128 0
	.uleb128 .LEHB4-.LFB8665
	.uleb128 .LEHE4-.LEHB4
	.uleb128 .L128-.LFB8665
	.uleb128 0
	.uleb128 .LEHB5-.LFB8665
	.uleb128 .LEHE5-.LEHB5
	.uleb128 .L129-.LFB8665
	.uleb128 0
	.uleb128 .LEHB6-.LFB8665
	.uleb128 .LEHE6-.LEHB6
	.uleb128 0
	.uleb128 0
	.uleb128 .LEHB7-.LFB8665
	.uleb128 .LEHE7-.LEHB7
	.uleb128 .L130-.LFB8665
	.uleb128 0
	.uleb128 .LEHB8-.LFB8665
	.uleb128 .LEHE8-.LEHB8
	.uleb128 .L131-.LFB8665
	.uleb128 0
	.uleb128 .LEHB9-.LFB8665
	.uleb128 .LEHE9-.LEHB9
	.uleb128 0
	.uleb128 0
.LLSDACSE8665:
	.text
	.seh_endproc
	.section .rdata,"dr"
.LC30:
	.ascii "\12 Array Time Auto Test\12\0"
	.text
	.globl	_Z13arrayAutoTesti
	.def	_Z13arrayAutoTesti;	.scl	2;	.type	32;	.endef
	.seh_proc	_Z13arrayAutoTesti
_Z13arrayAutoTesti:
.LFB8666:
	.loc 3 515 1
	.cfi_startproc
	pushq	%rbp
	.seh_pushreg	%rbp
	.cfi_def_cfa_offset 16
	.cfi_offset 6, -16
	pushq	%rbx
	.seh_pushreg	%rbx
	.cfi_def_cfa_offset 24
	.cfi_offset 3, -24
	subq	$216, %rsp
	.seh_stackalloc	216
	.cfi_def_cfa_offset 240
	leaq	208(%rsp), %rbp
	.seh_setframe	%rbp, 208
	.cfi_def_cfa 6, 32
	.seh_endprologue
	movl	%ecx, 32(%rbp)
	.loc 3 516 18
	leaq	.LC30(%rip), %rax
	movq	%rax, %rdx
	movq	.refptr._ZSt4cout(%rip), %rax
	movq	%rax, %rcx
.LEHB10:
	call	_ZStlsISt11char_traitsIcEERSt13basic_ostreamIcT_ES5_PKc
.LEHE10:
	.loc 3 517 15
	movl	$12, -8(%rbp)
	leaq	-129(%rbp), %rax
	movq	%rax, -24(%rbp)
.LBB152:
.LBB153:
.LBB154:
.LBB155:
.LBB156:
	.loc 4 88 49
	nop
.LBE156:
.LBE155:
.LBE154:
	.loc 5 161 38
	nop
.LBE153:
.LBE152:
	.loc 3 519 50 discriminator 1
	leaq	-129(%rbp), %rdx
	leaq	-176(%rbp), %rax
	movq	%rdx, %r9
	movl	$45, %r8d
	movl	$143, %edx
	movq	%rax, %rcx
.LEHB11:
	call	_ZNSt7__cxx1112basic_stringIcSt11char_traitsIcESaIcEEC1IS3_EEycRKS3_
.LEHE11:
	.loc 3 519 50 is_stmt 0 discriminator 2
	leaq	-176(%rbp), %rax
	movq	%rax, %rdx
	movq	.refptr._ZSt4cout(%rip), %rax
	movq	%rax, %rcx
.LEHB12:
	call	_ZStlsIcSt11char_traitsIcESaIcEERSt13basic_ostreamIT_T0_ES7_RKNSt7__cxx1112basic_stringIS4_S5_T1_EE
	movq	%rax, %rcx
	.loc 3 519 60 is_stmt 1 discriminator 4
	movq	.refptr._ZSt4endlIcSt11char_traitsIcEERSt13basic_ostreamIT_T0_ES6_(%rip), %rax
	movq	%rax, %rdx
	call	_ZNSolsEPFRSoS_E
.LEHE12:
	.loc 3 519 23 discriminator 6
	leaq	-176(%rbp), %rax
	movq	%rax, %rcx
	call	_ZNSt7__cxx1112basic_stringIcSt11char_traitsIcESaIcEED1Ev
.LBB157:
.LBB158:
.LBB159:
	.loc 5 182 39
	leaq	-129(%rbp), %rax
	movq	%rax, %rcx
	call	_ZNSt15__new_allocatorIcED2Ev
.LBE159:
	nop
.LBE158:
.LBE157:
	.loc 3 524 106
	movl	$6, %ecx
	call	_ZSt4setwi
	.loc 3 524 106 is_stmt 0 discriminator 1
	movl	%eax, %edx
	movq	.refptr._ZSt4cout(%rip), %rax
	movq	%rax, %rcx
	call	_ZStlsIcSt11char_traitsIcEERSt13basic_ostreamIT_T0_ES6_St5_Setw
	.loc 3 524 106 discriminator 2
	movl	$32, %edx
	movq	%rax, %rcx
.LEHB13:
	call	_ZStlsISt11char_traitsIcEERSt13basic_ostreamIcT_ES5_c
	movq	%rax, %rcx
	.loc 3 524 106 discriminator 3
	leaq	.LC21(%rip), %rax
	movq	%rax, %rdx
	call	_ZStlsISt11char_traitsIcEERSt13basic_ostreamIcT_ES5_PKc
	movq	%rax, %rbx
	.loc 3 524 106 discriminator 4
	movl	$12, %ecx
	call	_ZSt4setwi
	.loc 3 524 106 discriminator 5
	movl	%eax, %edx
	movq	%rbx, %rcx
	call	_ZStlsIcSt11char_traitsIcEERSt13basic_ostreamIT_T0_ES6_St5_Setw
	.loc 3 524 106 discriminator 6
	movl	$32, %edx
	movq	%rax, %rcx
	call	_ZStlsISt11char_traitsIcEERSt13basic_ostreamIcT_ES5_c
	movq	%rax, %rcx
	.loc 3 524 106 discriminator 7
	leaq	.LC22(%rip), %rax
	movq	%rax, %rdx
	call	_ZStlsISt11char_traitsIcEERSt13basic_ostreamIcT_ES5_PKc
	movq	%rax, %rbx
	.loc 3 524 106 discriminator 8
	movl	$12, %ecx
	call	_ZSt4setwi
	.loc 3 524 106 discriminator 9
	movl	%eax, %edx
	movq	%rbx, %rcx
	call	_ZStlsIcSt11char_traitsIcEERSt13basic_ostreamIT_T0_ES6_St5_Setw
	movq	%rax, %rcx
	.loc 3 524 106 discriminator 10
	leaq	.LC23(%rip), %rax
	movq	%rax, %rdx
	call	_ZStlsISt11char_traitsIcEERSt13basic_ostreamIcT_ES5_PKc
	movq	%rax, %rcx
	.loc 3 524 106 discriminator 11
	leaq	.LC22(%rip), %rax
	movq	%rax, %rdx
	call	_ZStlsISt11char_traitsIcEERSt13basic_ostreamIcT_ES5_PKc
	movq	%rax, %rbx
	.loc 3 524 106 discriminator 12
	movl	$12, %ecx
	call	_ZSt4setwi
	.loc 3 524 106 discriminator 13
	movl	%eax, %edx
	movq	%rbx, %rcx
	call	_ZStlsIcSt11char_traitsIcEERSt13basic_ostreamIT_T0_ES6_St5_Setw
	.loc 3 524 106 discriminator 14
	movl	$32, %edx
	movq	%rax, %rcx
	call	_ZStlsISt11char_traitsIcEERSt13basic_ostreamIcT_ES5_c
	movq	%rax, %rcx
	.loc 3 524 106 discriminator 15
	leaq	.LC21(%rip), %rax
	movq	%rax, %rdx
	call	_ZStlsISt11char_traitsIcEERSt13basic_ostreamIcT_ES5_PKc
	movq	%rax, %rbx
	.loc 3 524 106 discriminator 16
	movl	$12, %ecx
	call	_ZSt4setwi
	.loc 3 524 106 discriminator 17
	movl	%eax, %edx
	movq	%rbx, %rcx
	call	_ZStlsIcSt11char_traitsIcEERSt13basic_ostreamIT_T0_ES6_St5_Setw
	.loc 3 524 106 discriminator 18
	movl	$32, %edx
	movq	%rax, %rcx
	call	_ZStlsISt11char_traitsIcEERSt13basic_ostreamIcT_ES5_c
	movq	%rax, %rcx
	.loc 3 524 106 discriminator 19
	leaq	.LC22(%rip), %rax
	movq	%rax, %rdx
	call	_ZStlsISt11char_traitsIcEERSt13basic_ostreamIcT_ES5_PKc
	movq	%rax, %rbx
	.loc 3 524 106 discriminator 20
	movl	$12, %ecx
	call	_ZSt4setwi
	.loc 3 524 106 discriminator 21
	movl	%eax, %edx
	movq	%rbx, %rcx
	call	_ZStlsIcSt11char_traitsIcEERSt13basic_ostreamIT_T0_ES6_St5_Setw
	movq	%rax, %rcx
	.loc 3 524 106 discriminator 22
	leaq	.LC24(%rip), %rax
	movq	%rax, %rdx
	call	_ZStlsISt11char_traitsIcEERSt13basic_ostreamIcT_ES5_PKc
	movq	%rax, %rcx
	.loc 3 524 106 discriminator 23
	leaq	.LC22(%rip), %rax
	movq	%rax, %rdx
	call	_ZStlsISt11char_traitsIcEERSt13basic_ostreamIcT_ES5_PKc
	movq	%rax, %rbx
	.loc 3 524 106 discriminator 24
	movl	$12, %ecx
	call	_ZSt4setwi
	.loc 3 524 106 discriminator 25
	movl	%eax, %edx
	movq	%rbx, %rcx
	call	_ZStlsIcSt11char_traitsIcEERSt13basic_ostreamIT_T0_ES6_St5_Setw
	.loc 3 524 106 discriminator 26
	movl	$32, %edx
	movq	%rax, %rcx
	call	_ZStlsISt11char_traitsIcEERSt13basic_ostreamIcT_ES5_c
	movq	%rax, %rcx
	.loc 3 524 106 discriminator 27
	leaq	.LC21(%rip), %rax
	movq	%rax, %rdx
	call	_ZStlsISt11char_traitsIcEERSt13basic_ostreamIcT_ES5_PKc
	movq	%rax, %rbx
	.loc 3 524 106 discriminator 28
	movl	$12, %ecx
	call	_ZSt4setwi
	.loc 3 524 106 discriminator 29
	movl	%eax, %edx
	movq	%rbx, %rcx
	call	_ZStlsIcSt11char_traitsIcEERSt13basic_ostreamIT_T0_ES6_St5_Setw
	.loc 3 524 106 discriminator 30
	movl	$32, %edx
	movq	%rax, %rcx
	call	_ZStlsISt11char_traitsIcEERSt13basic_ostreamIcT_ES5_c
	movq	%rax, %rcx
	.loc 3 524 106 discriminator 31
	leaq	.LC22(%rip), %rax
	movq	%rax, %rdx
	call	_ZStlsISt11char_traitsIcEERSt13basic_ostreamIcT_ES5_PKc
	movq	%rax, %rbx
	.loc 3 524 106 discriminator 32
	movl	$12, %ecx
	call	_ZSt4setwi
	.loc 3 524 106 discriminator 33
	movl	%eax, %edx
	movq	%rbx, %rcx
	call	_ZStlsIcSt11char_traitsIcEERSt13basic_ostreamIT_T0_ES6_St5_Setw
	movq	%rax, %rcx
	.loc 3 524 106 discriminator 34
	leaq	.LC25(%rip), %rax
	movq	%rax, %rdx
	call	_ZStlsISt11char_traitsIcEERSt13basic_ostreamIcT_ES5_PKc
	movq	%rax, %rcx
	.loc 3 524 106 discriminator 35
	leaq	.LC22(%rip), %rax
	movq	%rax, %rdx
	call	_ZStlsISt11char_traitsIcEERSt13basic_ostreamIcT_ES5_PKc
	movq	%rax, %rbx
	.loc 3 524 106 discriminator 36
	movl	$12, %ecx
	call	_ZSt4setwi
	.loc 3 524 106 discriminator 37
	movl	%eax, %edx
	movq	%rbx, %rcx
	call	_ZStlsIcSt11char_traitsIcEERSt13basic_ostreamIT_T0_ES6_St5_Setw
	.loc 3 524 106 discriminator 38
	movl	$32, %edx
	movq	%rax, %rcx
	call	_ZStlsISt11char_traitsIcEERSt13basic_ostreamIcT_ES5_c
	movq	%rax, %rcx
	.loc 3 524 106 discriminator 39
	leaq	.LC21(%rip), %rax
	movq	%rax, %rdx
	call	_ZStlsISt11char_traitsIcEERSt13basic_ostreamIcT_ES5_PKc
	movq	%rax, %rcx
	.loc 3 525 23 is_stmt 1
	movq	.refptr._ZSt4endlIcSt11char_traitsIcEERSt13basic_ostreamIT_T0_ES6_(%rip), %rax
	movq	%rax, %rdx
	call	_ZNSolsEPFRSoS_E
	.loc 3 532 53
	movl	$6, %ecx
	call	_ZSt4setwi
	.loc 3 532 53 is_stmt 0 discriminator 1
	movl	%eax, %edx
	movq	.refptr._ZSt4cout(%rip), %rax
	movq	%rax, %rcx
	call	_ZStlsIcSt11char_traitsIcEERSt13basic_ostreamIT_T0_ES6_St5_Setw
	movq	%rax, %rcx
	.loc 3 532 53 discriminator 2
	leaq	.LC26(%rip), %rax
	movq	%rax, %rdx
	call	_ZStlsISt11char_traitsIcEERSt13basic_ostreamIcT_ES5_PKc
	movq	%rax, %rcx
	.loc 3 532 53 discriminator 3
	leaq	.LC21(%rip), %rax
	movq	%rax, %rdx
	call	_ZStlsISt11char_traitsIcEERSt13basic_ostreamIcT_ES5_PKc
	movq	%rax, %rbx
	.loc 3 532 53 discriminator 4
	movl	$12, %ecx
	call	_ZSt4setwi
	.loc 3 532 53 discriminator 5
	movl	%eax, %edx
	movq	%rbx, %rcx
	call	_ZStlsIcSt11char_traitsIcEERSt13basic_ostreamIT_T0_ES6_St5_Setw
	movq	%rax, %rcx
	.loc 3 532 53 discriminator 6
	leaq	.LC27(%rip), %rax
	movq	%rax, %rdx
	call	_ZStlsISt11char_traitsIcEERSt13basic_ostreamIcT_ES5_PKc
	movq	%rax, %rcx
	.loc 3 532 53 discriminator 7
	leaq	.LC21(%rip), %rax
	movq	%rax, %rdx
	call	_ZStlsISt11char_traitsIcEERSt13basic_ostreamIcT_ES5_PKc
	movq	%rax, %rbx
	.loc 3 532 53 discriminator 8
	movl	$12, %ecx
	call	_ZSt4setwi
	.loc 3 532 53 discriminator 9
	movl	%eax, %edx
	movq	%rbx, %rcx
	call	_ZStlsIcSt11char_traitsIcEERSt13basic_ostreamIT_T0_ES6_St5_Setw
	movq	%rax, %rcx
	.loc 3 532 53 discriminator 10
	leaq	.LC28(%rip), %rax
	movq	%rax, %rdx
	call	_ZStlsISt11char_traitsIcEERSt13basic_ostreamIcT_ES5_PKc
	movq	%rax, %rcx
	.loc 3 532 53 discriminator 11
	leaq	.LC21(%rip), %rax
	movq	%rax, %rdx
	call	_ZStlsISt11char_traitsIcEERSt13basic_ostreamIcT_ES5_PKc
	movq	%rax, %rbx
	.loc 3 532 53 discriminator 12
	movl	$12, %ecx
	call	_ZSt4setwi
	.loc 3 532 53 discriminator 13
	movl	%eax, %edx
	movq	%rbx, %rcx
	call	_ZStlsIcSt11char_traitsIcEERSt13basic_ostreamIT_T0_ES6_St5_Setw
	movq	%rax, %rcx
	.loc 3 532 53 discriminator 14
	leaq	.LC29(%rip), %rax
	movq	%rax, %rdx
	call	_ZStlsISt11char_traitsIcEERSt13basic_ostreamIcT_ES5_PKc
	movq	%rax, %rcx
	.loc 3 532 53 discriminator 15
	leaq	.LC21(%rip), %rax
	movq	%rax, %rdx
	call	_ZStlsISt11char_traitsIcEERSt13basic_ostreamIcT_ES5_PKc
	movq	%rax, %rbx
	.loc 3 532 53 discriminator 16
	movl	$12, %ecx
	call	_ZSt4setwi
	.loc 3 532 53 discriminator 17
	movl	%eax, %edx
	movq	%rbx, %rcx
	call	_ZStlsIcSt11char_traitsIcEERSt13basic_ostreamIT_T0_ES6_St5_Setw
	movq	%rax, %rcx
	.loc 3 532 53 discriminator 18
	leaq	.LC27(%rip), %rax
	movq	%rax, %rdx
	call	_ZStlsISt11char_traitsIcEERSt13basic_ostreamIcT_ES5_PKc
	movq	%rax, %rcx
	.loc 3 532 53 discriminator 19
	leaq	.LC21(%rip), %rax
	movq	%rax, %rdx
	call	_ZStlsISt11char_traitsIcEERSt13basic_ostreamIcT_ES5_PKc
	movq	%rax, %rbx
	.loc 3 532 53 discriminator 20
	movl	$12, %ecx
	call	_ZSt4setwi
	.loc 3 532 53 discriminator 21
	movl	%eax, %edx
	movq	%rbx, %rcx
	call	_ZStlsIcSt11char_traitsIcEERSt13basic_ostreamIT_T0_ES6_St5_Setw
	movq	%rax, %rcx
	.loc 3 532 53 discriminator 22
	leaq	.LC28(%rip), %rax
	movq	%rax, %rdx
	call	_ZStlsISt11char_traitsIcEERSt13basic_ostreamIcT_ES5_PKc
	movq	%rax, %rcx
	.loc 3 532 53 discriminator 23
	leaq	.LC21(%rip), %rax
	movq	%rax, %rdx
	call	_ZStlsISt11char_traitsIcEERSt13basic_ostreamIcT_ES5_PKc
	movq	%rax, %rbx
	.loc 3 532 53 discriminator 24
	movl	$12, %ecx
	call	_ZSt4setwi
	.loc 3 532 53 discriminator 25
	movl	%eax, %edx
	movq	%rbx, %rcx
	call	_ZStlsIcSt11char_traitsIcEERSt13basic_ostreamIT_T0_ES6_St5_Setw
	movq	%rax, %rcx
	.loc 3 532 53 discriminator 26
	leaq	.LC29(%rip), %rax
	movq	%rax, %rdx
	call	_ZStlsISt11char_traitsIcEERSt13basic_ostreamIcT_ES5_PKc
	movq	%rax, %rcx
	.loc 3 532 53 discriminator 27
	leaq	.LC21(%rip), %rax
	movq	%rax, %rdx
	call	_ZStlsISt11char_traitsIcEERSt13basic_ostreamIcT_ES5_PKc
	movq	%rax, %rbx
	.loc 3 532 53 discriminator 28
	movl	$12, %ecx
	call	_ZSt4setwi
	.loc 3 532 53 discriminator 29
	movl	%eax, %edx
	movq	%rbx, %rcx
	call	_ZStlsIcSt11char_traitsIcEERSt13basic_ostreamIT_T0_ES6_St5_Setw
	movq	%rax, %rcx
	.loc 3 532 53 discriminator 30
	leaq	.LC27(%rip), %rax
	movq	%rax, %rdx
	call	_ZStlsISt11char_traitsIcEERSt13basic_ostreamIcT_ES5_PKc
	movq	%rax, %rcx
	.loc 3 532 53 discriminator 31
	leaq	.LC21(%rip), %rax
	movq	%rax, %rdx
	call	_ZStlsISt11char_traitsIcEERSt13basic_ostreamIcT_ES5_PKc
	movq	%rax, %rbx
	.loc 3 532 53 discriminator 32
	movl	$12, %ecx
	call	_ZSt4setwi
	.loc 3 532 53 discriminator 33
	movl	%eax, %edx
	movq	%rbx, %rcx
	call	_ZStlsIcSt11char_traitsIcEERSt13basic_ostreamIT_T0_ES6_St5_Setw
	movq	%rax, %rcx
	.loc 3 532 53 discriminator 34
	leaq	.LC28(%rip), %rax
	movq	%rax, %rdx
	call	_ZStlsISt11char_traitsIcEERSt13basic_ostreamIcT_ES5_PKc
	movq	%rax, %rcx
	.loc 3 532 53 discriminator 35
	leaq	.LC21(%rip), %rax
	movq	%rax, %rdx
	call	_ZStlsISt11char_traitsIcEERSt13basic_ostreamIcT_ES5_PKc
	movq	%rax, %rbx
	.loc 3 532 53 discriminator 36
	movl	$12, %ecx
	call	_ZSt4setwi
	.loc 3 532 53 discriminator 37
	movl	%eax, %edx
	movq	%rbx, %rcx
	call	_ZStlsIcSt11char_traitsIcEERSt13basic_ostreamIT_T0_ES6_St5_Setw
	movq	%rax, %rcx
	.loc 3 532 53 discriminator 38
	leaq	.LC29(%rip), %rax
	movq	%rax, %rdx
	call	_ZStlsISt11char_traitsIcEERSt13basic_ostreamIcT_ES5_PKc
	movq	%rax, %rcx
	.loc 3 532 53 discriminator 39
	leaq	.LC21(%rip), %rax
	movq	%rax, %rdx
	call	_ZStlsISt11char_traitsIcEERSt13basic_ostreamIcT_ES5_PKc
	movq	%rax, %rcx
	.loc 3 532 67 is_stmt 1 discriminator 40
	movq	.refptr._ZSt4endlIcSt11char_traitsIcEERSt13basic_ostreamIT_T0_ES6_(%rip), %rax
	movq	%rax, %rdx
	call	_ZNSolsEPFRSoS_E
.LEHE13:
	leaq	-81(%rbp), %rax
	movq	%rax, -32(%rbp)
.LBB160:
.LBB161:
.LBB162:
.LBB163:
.LBB164:
	.loc 4 88 49
	nop
.LBE164:
.LBE163:
.LBE162:
	.loc 5 161 38
	nop
.LBE161:
.LBE160:
	.loc 3 535 50 discriminator 1
	leaq	-81(%rbp), %rdx
	leaq	-128(%rbp), %rax
	movq	%rdx, %r9
	movl	$45, %r8d
	movl	$143, %edx
	movq	%rax, %rcx
.LEHB14:
	call	_ZNSt7__cxx1112basic_stringIcSt11char_traitsIcESaIcEEC1IS3_EEycRKS3_
.LEHE14:
	.loc 3 535 50 is_stmt 0 discriminator 2
	leaq	-128(%rbp), %rax
	movq	%rax, %rdx
	movq	.refptr._ZSt4cout(%rip), %rax
	movq	%rax, %rcx
.LEHB15:
	call	_ZStlsIcSt11char_traitsIcESaIcEERSt13basic_ostreamIT_T0_ES7_RKNSt7__cxx1112basic_stringIS4_S5_T1_EE
	movq	%rax, %rcx
	.loc 3 535 60 is_stmt 1 discriminator 4
	movq	.refptr._ZSt4endlIcSt11char_traitsIcEERSt13basic_ostreamIT_T0_ES6_(%rip), %rax
	movq	%rax, %rdx
	call	_ZNSolsEPFRSoS_E
.LEHE15:
	.loc 3 535 23 discriminator 6
	leaq	-128(%rbp), %rax
	movq	%rax, %rcx
	call	_ZNSt7__cxx1112basic_stringIcSt11char_traitsIcESaIcEED1Ev
.LBB165:
.LBB166:
.LBB167:
	.loc 5 182 39
	leaq	-81(%rbp), %rax
	movq	%rax, %rcx
	call	_ZNSt15__new_allocatorIcED2Ev
.LBE167:
	nop
.LBE166:
.LBE165:
.LBB168:
	.loc 3 536 14
	movl	$100, -4(%rbp)
	.loc 3 536 5
	jmp	.L134
.L135:
.LBB169:
	.loc 3 538 13
	movl	-4(%rbp), %eax
	movl	%eax, -12(%rbp)
	.loc 3 539 41
	movl	$6, %ecx
	call	_ZSt4setwi
	.loc 3 539 41 is_stmt 0 discriminator 1
	movl	%eax, %edx
	movq	.refptr._ZSt4cout(%rip), %rax
	movq	%rax, %rcx
	call	_ZStlsIcSt11char_traitsIcEERSt13basic_ostreamIT_T0_ES6_St5_Setw
	movq	%rax, %rcx
	.loc 3 539 75 is_stmt 1 discriminator 2
	movl	-4(%rbp), %eax
	movl	%eax, %edx
.LEHB16:
	call	_ZNSolsEi
	movq	%rax, %rcx
	.loc 3 539 75 is_stmt 0 discriminator 3
	leaq	.LC21(%rip), %rax
	movq	%rax, %rdx
	call	_ZStlsISt11char_traitsIcEERSt13basic_ostreamIcT_ES5_PKc
	movq	%rax, %rbx
	.loc 3 539 75 discriminator 4
	movl	$12, %ecx
	call	_ZSt4setwi
	.loc 3 539 75 discriminator 5
	movl	%eax, %edx
	movq	%rbx, %rcx
	call	_ZStlsIcSt11char_traitsIcEERSt13basic_ostreamIT_T0_ES6_St5_Setw
	movq	%rax, %rbx
	.loc 3 540 83 is_stmt 1
	movl	-12(%rbp), %eax
	movl	%eax, %r8d
	leaq	_Z17FillArrayBestCaseRPii(%rip), %rax
	movq	%rax, %rdx
	leaq	_Z15BubbleSortArrayRPii(%rip), %rax
	movq	%rax, %rcx
	call	_Z20autoSortTestForArrayPFPiRS_iEPFvS0_iEi
	.loc 3 540 83 is_stmt 0 discriminator 1
	movq	%rax, %rdx
	movq	%rbx, %rcx
	call	_ZNSolsEx
	movq	%rax, %rcx
	.loc 3 540 112 is_stmt 1 discriminator 2
	leaq	.LC21(%rip), %rax
	movq	%rax, %rdx
	call	_ZStlsISt11char_traitsIcEERSt13basic_ostreamIcT_ES5_PKc
	movq	%rax, %rbx
	.loc 3 540 112 is_stmt 0 discriminator 3
	movl	$12, %ecx
	call	_ZSt4setwi
	.loc 3 540 112 discriminator 4
	movl	%eax, %edx
	movq	%rbx, %rcx
	call	_ZStlsIcSt11char_traitsIcEERSt13basic_ostreamIT_T0_ES6_St5_Setw
	movq	%rax, %rbx
	.loc 3 541 86 is_stmt 1
	movl	-12(%rbp), %eax
	movl	%eax, %r8d
	leaq	_Z17FillArrayBestCaseRPii(%rip), %rax
	movq	%rax, %rdx
	leaq	_Z18SelectionSortArrayRPii(%rip), %rax
	movq	%rax, %rcx
	call	_Z20autoSortTestForArrayPFPiRS_iEPFvS0_iEi
	.loc 3 541 86 is_stmt 0 discriminator 1
	movq	%rax, %rdx
	movq	%rbx, %rcx
	call	_ZNSolsEx
	movq	%rax, %rcx
	.loc 3 541 115 is_stmt 1 discriminator 2
	leaq	.LC21(%rip), %rax
	movq	%rax, %rdx
	call	_ZStlsISt11char_traitsIcEERSt13basic_ostreamIcT_ES5_PKc
	movq	%rax, %rbx
	.loc 3 541 115 is_stmt 0 discriminator 3
	movl	$12, %ecx
	call	_ZSt4setwi
	.loc 3 541 115 discriminator 4
	movl	%eax, %edx
	movq	%rbx, %rcx
	call	_ZStlsIcSt11char_traitsIcEERSt13basic_ostreamIT_T0_ES6_St5_Setw
	movq	%rax, %rbx
	.loc 3 542 86 is_stmt 1
	movl	-12(%rbp), %eax
	movl	%eax, %r8d
	leaq	_Z17FillArrayBestCaseRPii(%rip), %rax
	movq	%rax, %rdx
	leaq	_Z18InsertionSortArrayRPii(%rip), %rax
	movq	%rax, %rcx
	call	_Z20autoSortTestForArrayPFPiRS_iEPFvS0_iEi
	.loc 3 542 86 is_stmt 0 discriminator 1
	movq	%rax, %rdx
	movq	%rbx, %rcx
	call	_ZNSolsEx
	movq	%rax, %rcx
	.loc 3 542 115 is_stmt 1 discriminator 2
	leaq	.LC21(%rip), %rax
	movq	%rax, %rdx
	call	_ZStlsISt11char_traitsIcEERSt13basic_ostreamIcT_ES5_PKc
	movq	%rax, %rbx
	.loc 3 542 115 is_stmt 0 discriminator 3
	movl	$12, %ecx
	call	_ZSt4setwi
	.loc 3 542 115 discriminator 4
	movl	%eax, %edx
	movq	%rbx, %rcx
	call	_ZStlsIcSt11char_traitsIcEERSt13basic_ostreamIT_T0_ES6_St5_Setw
	movq	%rax, %rbx
	.loc 3 543 85 is_stmt 1
	movl	-12(%rbp), %eax
	movl	%eax, %r8d
	leaq	_Z19FillArrayMiddleCaseRPii(%rip), %rax
	movq	%rax, %rdx
	leaq	_Z15BubbleSortArrayRPii(%rip), %rax
	movq	%rax, %rcx
	call	_Z20autoSortTestForArrayPFPiRS_iEPFvS0_iEi
	.loc 3 543 85 is_stmt 0 discriminator 1
	movq	%rax, %rdx
	movq	%rbx, %rcx
	call	_ZNSolsEx
	movq	%rax, %rcx
	.loc 3 543 114 is_stmt 1 discriminator 2
	leaq	.LC21(%rip), %rax
	movq	%rax, %rdx
	call	_ZStlsISt11char_traitsIcEERSt13basic_ostreamIcT_ES5_PKc
	movq	%rax, %rbx
	.loc 3 543 114 is_stmt 0 discriminator 3
	movl	$12, %ecx
	call	_ZSt4setwi
	.loc 3 543 114 discriminator 4
	movl	%eax, %edx
	movq	%rbx, %rcx
	call	_ZStlsIcSt11char_traitsIcEERSt13basic_ostreamIT_T0_ES6_St5_Setw
	movq	%rax, %rbx
	.loc 3 544 88 is_stmt 1
	movl	-12(%rbp), %eax
	movl	%eax, %r8d
	leaq	_Z19FillArrayMiddleCaseRPii(%rip), %rax
	movq	%rax, %rdx
	leaq	_Z18SelectionSortArrayRPii(%rip), %rax
	movq	%rax, %rcx
	call	_Z20autoSortTestForArrayPFPiRS_iEPFvS0_iEi
	.loc 3 544 88 is_stmt 0 discriminator 1
	movq	%rax, %rdx
	movq	%rbx, %rcx
	call	_ZNSolsEx
	movq	%rax, %rcx
	.loc 3 544 117 is_stmt 1 discriminator 2
	leaq	.LC21(%rip), %rax
	movq	%rax, %rdx
	call	_ZStlsISt11char_traitsIcEERSt13basic_ostreamIcT_ES5_PKc
	movq	%rax, %rbx
	.loc 3 544 117 is_stmt 0 discriminator 3
	movl	$12, %ecx
	call	_ZSt4setwi
	.loc 3 544 117 discriminator 4
	movl	%eax, %edx
	movq	%rbx, %rcx
	call	_ZStlsIcSt11char_traitsIcEERSt13basic_ostreamIT_T0_ES6_St5_Setw
	movq	%rax, %rbx
	.loc 3 545 88 is_stmt 1
	movl	-12(%rbp), %eax
	movl	%eax, %r8d
	leaq	_Z19FillArrayMiddleCaseRPii(%rip), %rax
	movq	%rax, %rdx
	leaq	_Z18InsertionSortArrayRPii(%rip), %rax
	movq	%rax, %rcx
	call	_Z20autoSortTestForArrayPFPiRS_iEPFvS0_iEi
	.loc 3 545 88 is_stmt 0 discriminator 1
	movq	%rax, %rdx
	movq	%rbx, %rcx
	call	_ZNSolsEx
	movq	%rax, %rcx
	.loc 3 545 117 is_stmt 1 discriminator 2
	leaq	.LC21(%rip), %rax
	movq	%rax, %rdx
	call	_ZStlsISt11char_traitsIcEERSt13basic_ostreamIcT_ES5_PKc
	movq	%rax, %rbx
	.loc 3 545 117 is_stmt 0 discriminator 3
	movl	$12, %ecx
	call	_ZSt4setwi
	.loc 3 545 117 discriminator 4
	movl	%eax, %edx
	movq	%rbx, %rcx
	call	_ZStlsIcSt11char_traitsIcEERSt13basic_ostreamIT_T0_ES6_St5_Setw
	movq	%rax, %rbx
	.loc 3 546 82 is_stmt 1
	movl	-12(%rbp), %eax
	movl	%eax, %r8d
	leaq	_Z16FillArrayBadCaseRPii(%rip), %rax
	movq	%rax, %rdx
	leaq	_Z15BubbleSortArrayRPii(%rip), %rax
	movq	%rax, %rcx
	call	_Z20autoSortTestForArrayPFPiRS_iEPFvS0_iEi
	.loc 3 546 82 is_stmt 0 discriminator 1
	movq	%rax, %rdx
	movq	%rbx, %rcx
	call	_ZNSolsEx
	movq	%rax, %rcx
	.loc 3 546 111 is_stmt 1 discriminator 2
	leaq	.LC21(%rip), %rax
	movq	%rax, %rdx
	call	_ZStlsISt11char_traitsIcEERSt13basic_ostreamIcT_ES5_PKc
	movq	%rax, %rbx
	.loc 3 546 111 is_stmt 0 discriminator 3
	movl	$12, %ecx
	call	_ZSt4setwi
	.loc 3 546 111 discriminator 4
	movl	%eax, %edx
	movq	%rbx, %rcx
	call	_ZStlsIcSt11char_traitsIcEERSt13basic_ostreamIT_T0_ES6_St5_Setw
	movq	%rax, %rbx
	.loc 3 547 85 is_stmt 1
	movl	-12(%rbp), %eax
	movl	%eax, %r8d
	leaq	_Z16FillArrayBadCaseRPii(%rip), %rax
	movq	%rax, %rdx
	leaq	_Z18SelectionSortArrayRPii(%rip), %rax
	movq	%rax, %rcx
	call	_Z20autoSortTestForArrayPFPiRS_iEPFvS0_iEi
	.loc 3 547 85 is_stmt 0 discriminator 1
	movq	%rax, %rdx
	movq	%rbx, %rcx
	call	_ZNSolsEx
	movq	%rax, %rcx
	.loc 3 547 114 is_stmt 1 discriminator 2
	leaq	.LC21(%rip), %rax
	movq	%rax, %rdx
	call	_ZStlsISt11char_traitsIcEERSt13basic_ostreamIcT_ES5_PKc
	movq	%rax, %rbx
	.loc 3 547 114 is_stmt 0 discriminator 3
	movl	$12, %ecx
	call	_ZSt4setwi
	.loc 3 547 114 discriminator 4
	movl	%eax, %edx
	movq	%rbx, %rcx
	call	_ZStlsIcSt11char_traitsIcEERSt13basic_ostreamIT_T0_ES6_St5_Setw
	movq	%rax, %rbx
	.loc 3 548 85 is_stmt 1
	movl	-12(%rbp), %eax
	movl	%eax, %r8d
	leaq	_Z16FillArrayBadCaseRPii(%rip), %rax
	movq	%rax, %rdx
	leaq	_Z18InsertionSortArrayRPii(%rip), %rax
	movq	%rax, %rcx
	call	_Z20autoSortTestForArrayPFPiRS_iEPFvS0_iEi
	.loc 3 548 85 is_stmt 0 discriminator 1
	movq	%rax, %rdx
	movq	%rbx, %rcx
	call	_ZNSolsEx
	movq	%rax, %rcx
	.loc 3 548 90 is_stmt 1 discriminator 2
	leaq	.LC21(%rip), %rax
	movq	%rax, %rdx
	call	_ZStlsISt11char_traitsIcEERSt13basic_ostreamIcT_ES5_PKc
	movq	%rax, %rcx
	.loc 3 548 104 discriminator 3
	movq	.refptr._ZSt4endlIcSt11char_traitsIcEERSt13basic_ostreamIT_T0_ES6_(%rip), %rax
	movq	%rax, %rdx
	call	_ZNSolsEPFRSoS_E
.LEHE16:
.LBE169:
	.loc 3 536 40 discriminator 3
	movl	TEST_STEP_SIZE(%rip), %eax
	addl	%eax, -4(%rbp)
.L134:
	.loc 3 536 25 discriminator 1
	movl	-4(%rbp), %eax
	cmpl	32(%rbp), %eax
	jle	.L135
	leaq	-41(%rbp), %rax
	movq	%rax, -40(%rbp)
.LBE168:
.LBB170:
.LBB171:
.LBB172:
.LBB173:
.LBB174:
	.loc 4 88 49
	nop
.LBE174:
.LBE173:
.LBE172:
	.loc 5 161 38
	nop
.LBE171:
.LBE170:
	.loc 3 550 50 discriminator 1
	leaq	-41(%rbp), %rdx
	leaq	-80(%rbp), %rax
	movq	%rdx, %r9
	movl	$45, %r8d
	movl	$143, %edx
	movq	%rax, %rcx
.LEHB17:
	call	_ZNSt7__cxx1112basic_stringIcSt11char_traitsIcESaIcEEC1IS3_EEycRKS3_
.LEHE17:
	.loc 3 550 50 is_stmt 0 discriminator 2
	leaq	-80(%rbp), %rax
	movq	%rax, %rdx
	movq	.refptr._ZSt4cout(%rip), %rax
	movq	%rax, %rcx
.LEHB18:
	call	_ZStlsIcSt11char_traitsIcESaIcEERSt13basic_ostreamIT_T0_ES7_RKNSt7__cxx1112basic_stringIS4_S5_T1_EE
	movq	%rax, %rcx
	.loc 3 550 60 is_stmt 1 discriminator 4
	movq	.refptr._ZSt4endlIcSt11char_traitsIcEERSt13basic_ostreamIT_T0_ES6_(%rip), %rax
	movq	%rax, %rdx
	call	_ZNSolsEPFRSoS_E
.LEHE18:
	.loc 3 550 23 discriminator 6
	leaq	-80(%rbp), %rax
	movq	%rax, %rcx
	call	_ZNSt7__cxx1112basic_stringIcSt11char_traitsIcESaIcEED1Ev
.LBB175:
.LBB176:
.LBB177:
	.loc 5 182 39
	leaq	-41(%rbp), %rax
	movq	%rax, %rcx
	call	_ZNSt15__new_allocatorIcED2Ev
.LBE177:
	nop
.LBE176:
.LBE175:
	.loc 3 551 1
	jmp	.L148
.L143:
	.loc 3 519 23 discriminator 5
	movq	%rax, %rbx
	leaq	-176(%rbp), %rax
	movq	%rax, %rcx
	call	_ZNSt7__cxx1112basic_stringIcSt11char_traitsIcESaIcEED1Ev
	jmp	.L137
.L142:
.LBB178:
.LBB179:
.LBB180:
	.loc 5 182 39
	movq	%rax, %rbx
.L137:
	leaq	-129(%rbp), %rax
	movq	%rax, %rcx
	call	_ZNSt15__new_allocatorIcED2Ev
.LBE180:
	nop
	movq	%rbx, %rax
	movq	%rax, %rcx
.LEHB19:
	call	_Unwind_Resume
.L145:
.LBE179:
.LBE178:
	.loc 3 535 23 discriminator 5
	movq	%rax, %rbx
	leaq	-128(%rbp), %rax
	movq	%rax, %rcx
	call	_ZNSt7__cxx1112basic_stringIcSt11char_traitsIcESaIcEED1Ev
	jmp	.L139
.L144:
.LBB181:
.LBB182:
.LBB183:
	.loc 5 182 39
	movq	%rax, %rbx
.L139:
	leaq	-81(%rbp), %rax
	movq	%rax, %rcx
	call	_ZNSt15__new_allocatorIcED2Ev
.LBE183:
	nop
	movq	%rbx, %rax
	movq	%rax, %rcx
	call	_Unwind_Resume
.L147:
.LBE182:
.LBE181:
	.loc 3 550 23 discriminator 5
	movq	%rax, %rbx
	leaq	-80(%rbp), %rax
	movq	%rax, %rcx
	call	_ZNSt7__cxx1112basic_stringIcSt11char_traitsIcESaIcEED1Ev
	jmp	.L141
.L146:
.LBB184:
.LBB185:
.LBB186:
	.loc 5 182 39
	movq	%rax, %rbx
.L141:
	leaq	-41(%rbp), %rax
	movq	%rax, %rcx
	call	_ZNSt15__new_allocatorIcED2Ev
.LBE186:
	nop
	movq	%rbx, %rax
	movq	%rax, %rcx
	call	_Unwind_Resume
	nop
.LEHE19:
.L148:
.LBE185:
.LBE184:
	.loc 3 551 1
	addq	$216, %rsp
	popq	%rbx
	.cfi_restore 3
	popq	%rbp
	.cfi_restore 6
	.cfi_def_cfa 7, -200
	ret
	.cfi_endproc
.LFE8666:
	.seh_handler	__gxx_personality_seh0, @unwind, @except
	.seh_handlerdata
.LLSDA8666:
	.byte	0xff
	.byte	0xff
	.byte	0x1
	.uleb128 .LLSDACSE8666-.LLSDACSB8666
.LLSDACSB8666:
	.uleb128 .LEHB10-.LFB8666
	.uleb128 .LEHE10-.LEHB10
	.uleb128 0
	.uleb128 0
	.uleb128 .LEHB11-.LFB8666
	.uleb128 .LEHE11-.LEHB11
	.uleb128 .L142-.LFB8666
	.uleb128 0
	.uleb128 .LEHB12-.LFB8666
	.uleb128 .LEHE12-.LEHB12
	.uleb128 .L143-.LFB8666
	.uleb128 0
	.uleb128 .LEHB13-.LFB8666
	.uleb128 .LEHE13-.LEHB13
	.uleb128 0
	.uleb128 0
	.uleb128 .LEHB14-.LFB8666
	.uleb128 .LEHE14-.LEHB14
	.uleb128 .L144-.LFB8666
	.uleb128 0
	.uleb128 .LEHB15-.LFB8666
	.uleb128 .LEHE15-.LEHB15
	.uleb128 .L145-.LFB8666
	.uleb128 0
	.uleb128 .LEHB16-.LFB8666
	.uleb128 .LEHE16-.LEHB16
	.uleb128 0
	.uleb128 0
	.uleb128 .LEHB17-.LFB8666
	.uleb128 .LEHE17-.LEHB17
	.uleb128 .L146-.LFB8666
	.uleb128 0
	.uleb128 .LEHB18-.LFB8666
	.uleb128 .LEHE18-.LEHB18
	.uleb128 .L147-.LFB8666
	.uleb128 0
	.uleb128 .LEHB19-.LFB8666
	.uleb128 .LEHE19-.LEHB19
	.uleb128 0
	.uleb128 0
.LLSDACSE8666:
	.text
	.seh_endproc
	.globl	_Z19autoSortTestForListPFP4NodeS0_EPFvRS0_iEi
	.def	_Z19autoSortTestForListPFP4NodeS0_EPFvRS0_iEi;	.scl	2;	.type	32;	.endef
	.seh_proc	_Z19autoSortTestForListPFP4NodeS0_EPFvRS0_iEi
_Z19autoSortTestForListPFP4NodeS0_EPFvRS0_iEi:
.LFB8667:
	.loc 3 554 1
	.cfi_startproc
	pushq	%rbp
	.seh_pushreg	%rbp
	.cfi_def_cfa_offset 16
	.cfi_offset 6, -16
	movq	%rsp, %rbp
	.seh_setframe	%rbp, 0
	.cfi_def_cfa_register 6
	subq	$48, %rsp
	.seh_stackalloc	48
	.seh_endprologue
	movq	%rcx, 16(%rbp)
	movq	%rdx, 24(%rbp)
	movl	%r8d, 32(%rbp)
	.loc 3 555 11
	movq	$0, -8(%rbp)
	.loc 3 556 9
	movq	24(%rbp), %r8
	movl	32(%rbp), %edx
	leaq	-8(%rbp), %rax
	movq	%rax, %rcx
	call	*%r8
.LVL3:
	.loc 3 557 15
	movq	$0, -16(%rbp)
	.loc 3 558 24
	movq	-8(%rbp), %rdx
	leaq	-16(%rbp), %rcx
	movq	16(%rbp), %rax
	movq	%rcx, %r8
	movq	%rax, %rcx
	call	_Z8ListSortPFP4NodeS0_ES0_Rx
	.loc 3 558 14 discriminator 1
	movq	%rax, -8(%rbp)
	.loc 3 559 15
	leaq	-8(%rbp), %rax
	movq	%rax, %rcx
	call	_Z10DeleteListRP4Node
	.loc 3 560 12
	movq	-16(%rbp), %rax
	.loc 3 561 1
	addq	$48, %rsp
	popq	%rbp
	.cfi_restore 6
	.cfi_def_cfa 7, 8
	ret
	.cfi_endproc
.LFE8667:
	.seh_endproc
	.globl	_Z20autoSortTestForArrayPFPiRS_iEPFvS0_iEi
	.def	_Z20autoSortTestForArrayPFPiRS_iEPFvS0_iEi;	.scl	2;	.type	32;	.endef
	.seh_proc	_Z20autoSortTestForArrayPFPiRS_iEPFvS0_iEi
_Z20autoSortTestForArrayPFPiRS_iEPFvS0_iEi:
.LFB8668:
	.loc 3 564 1
	.cfi_startproc
	pushq	%rbp
	.seh_pushreg	%rbp
	.cfi_def_cfa_offset 16
	.cfi_offset 6, -16
	pushq	%rbx
	.seh_pushreg	%rbx
	.cfi_def_cfa_offset 24
	.cfi_offset 3, -24
	subq	$56, %rsp
	.seh_stackalloc	56
	.cfi_def_cfa_offset 80
	leaq	48(%rsp), %rbp
	.seh_setframe	%rbp, 48
	.cfi_def_cfa 6, 32
	.seh_endprologue
	movq	%rcx, 32(%rbp)
	movq	%rdx, 40(%rbp)
	movl	%r8d, 48(%rbp)
	.loc 3 565 30
	movl	48(%rbp), %eax
	movslq	%eax, %rbx
	.loc 3 565 37
	movabsq	$2305843009213693950, %rax
	cmpq	%rbx, %rax
	jb	.L152
	.loc 3 565 37 is_stmt 0 discriminator 1
	leaq	0(,%rbx,4), %rax
	.loc 3 565 37 discriminator 3
	movq	%rax, %rcx
	call	_Znay
	movq	%rax, %rcx
	.loc 3 565 37 discriminator 4
	movq	%rcx, %rdx
	leaq	-1(%rbx), %rax
	.loc 3 565 37
	jmp	.L154
.L152:
	.loc 3 565 37 discriminator 2
	call	__cxa_throw_bad_array_new_length
.L155:
	.loc 3 565 37 discriminator 7
	movl	$0, (%rdx)
	subq	$1, %rax
	addq	$4, %rdx
.L154:
	.loc 3 565 37 discriminator 5
	testq	%rax, %rax
	jns	.L155
	.loc 3 565 37 discriminator 8
	movq	%rcx, -8(%rbp)
	.loc 3 566 9 is_stmt 1
	movq	40(%rbp), %r8
	movl	48(%rbp), %edx
	leaq	-8(%rbp), %rax
	movq	%rax, %rcx
	call	*%r8
.LVL4:
	.loc 3 567 15
	movq	$0, -16(%rbp)
	.loc 3 568 26
	leaq	-16(%rbp), %r8
	movl	48(%rbp), %ecx
	leaq	-8(%rbp), %rdx
	movq	32(%rbp), %rax
	movq	%r8, %r9
	movl	%ecx, %r8d
	movq	%rax, %rcx
	call	_Z9ArraySortPFPiRS_iES0_iRx
	.loc 3 568 15 discriminator 1
	movq	%rax, -8(%rbp)
	.loc 3 569 5
	movq	-8(%rbp), %rax
	testq	%rax, %rax
	je	.L156
	.loc 3 569 14 discriminator 1
	movq	-8(%rbp), %rax
	movq	%rax, %rcx
	call	_ZdaPv
.L156:
	.loc 3 570 15
	movq	$0, -8(%rbp)
	.loc 3 571 12
	movq	-16(%rbp), %rax
	.loc 3 572 1
	addq	$56, %rsp
	popq	%rbx
	.cfi_restore 3
	popq	%rbp
	.cfi_restore 6
	.cfi_def_cfa 7, -40
	ret
	.cfi_endproc
.LFE8668:
	.seh_endproc
	.section	.text$_ZNKSt6chrono10time_pointINS_3_V212system_clockENS_8durationIxSt5ratioILx1ELx1000000000EEEEE16time_since_epochEv,"x"
	.linkonce discard
	.align 2
	.globl	_ZNKSt6chrono10time_pointINS_3_V212system_clockENS_8durationIxSt5ratioILx1ELx1000000000EEEEE16time_since_epochEv
	.def	_ZNKSt6chrono10time_pointINS_3_V212system_clockENS_8durationIxSt5ratioILx1ELx1000000000EEEEE16time_since_epochEv;	.scl	2;	.type	32;	.endef
	.seh_proc	_ZNKSt6chrono10time_pointINS_3_V212system_clockENS_8durationIxSt5ratioILx1ELx1000000000EEEEE16time_since_epochEv
_ZNKSt6chrono10time_pointINS_3_V212system_clockENS_8durationIxSt5ratioILx1ELx1000000000EEEEE16time_since_epochEv:
.LFB8669:
	.loc 1 949 2
	.cfi_startproc
	pushq	%rbp
	.seh_pushreg	%rbp
	.cfi_def_cfa_offset 16
	.cfi_offset 6, -16
	movq	%rsp, %rbp
	.seh_setframe	%rbp, 0
	.cfi_def_cfa_register 6
	.seh_endprologue
	movq	%rcx, 16(%rbp)
	.loc 1 950 11
	movq	16(%rbp), %rax
	movq	(%rax), %rax
	.loc 1 950 16
	popq	%rbp
	.cfi_restore 6
	.cfi_def_cfa 7, 8
	ret
	.cfi_endproc
.LFE8669:
	.seh_endproc
	.section	.text$_ZNSt7__cxx1112basic_stringIcSt11char_traitsIcESaIcEE12_Alloc_hiderD1Ev,"x"
	.linkonce discard
	.align 2
	.globl	_ZNSt7__cxx1112basic_stringIcSt11char_traitsIcESaIcEE12_Alloc_hiderD1Ev
	.def	_ZNSt7__cxx1112basic_stringIcSt11char_traitsIcESaIcEE12_Alloc_hiderD1Ev;	.scl	2;	.type	32;	.endef
	.seh_proc	_ZNSt7__cxx1112basic_stringIcSt11char_traitsIcESaIcEE12_Alloc_hiderD1Ev
_ZNSt7__cxx1112basic_stringIcSt11char_traitsIcESaIcEE12_Alloc_hiderD1Ev:
.LFB8796:
	.file 6 "C:/mingw64/include/c++/14.2.0/bits/basic_string.h"
	.loc 6 186 14
	.cfi_startproc
	pushq	%rbp
	.seh_pushreg	%rbp
	.cfi_def_cfa_offset 16
	.cfi_offset 6, -16
	movq	%rsp, %rbp
	.seh_setframe	%rbp, 0
	.cfi_def_cfa_register 6
	subq	$48, %rsp
	.seh_stackalloc	48
	.seh_endprologue
	movq	%rcx, 16(%rbp)
	movq	16(%rbp), %rax
	movq	%rax, -8(%rbp)
.LBB187:
.LBB188:
.LBB189:
.LBB190:
	.loc 5 182 39
	movq	-8(%rbp), %rax
	movq	%rax, %rcx
	call	_ZNSt15__new_allocatorIcED2Ev
.LBE190:
	nop
.LBE189:
.LBE188:
.LBE187:
	.loc 6 186 14
	nop
	addq	$48, %rsp
	popq	%rbp
	.cfi_restore 6
	.cfi_def_cfa 7, 8
	ret
	.cfi_endproc
.LFE8796:
	.seh_endproc
	.section	.text$_ZNSt6chronomiINS_3_V212system_clockENS_8durationIxSt5ratioILx1ELx1000000000EEEES6_EENSt11common_typeIJT0_T1_EE4typeERKNS_10time_pointIT_S8_EERKNSC_ISD_S9_EE,"x"
	.linkonce discard
	.globl	_ZNSt6chronomiINS_3_V212system_clockENS_8durationIxSt5ratioILx1ELx1000000000EEEES6_EENSt11common_typeIJT0_T1_EE4typeERKNS_10time_pointIT_S8_EERKNSC_ISD_S9_EE
	.def	_ZNSt6chronomiINS_3_V212system_clockENS_8durationIxSt5ratioILx1ELx1000000000EEEES6_EENSt11common_typeIJT0_T1_EE4typeERKNS_10time_pointIT_S8_EERKNSC_ISD_S9_EE;	.scl	2;	.type	32;	.endef
	.seh_proc	_ZNSt6chronomiINS_3_V212system_clockENS_8durationIxSt5ratioILx1ELx1000000000EEEES6_EENSt11common_typeIJT0_T1_EE4typeERKNS_10time_pointIT_S8_EERKNSC_ISD_S9_EE
_ZNSt6chronomiINS_3_V212system_clockENS_8durationIxSt5ratioILx1ELx1000000000EEEES6_EENSt11common_typeIJT0_T1_EE4typeERKNS_10time_pointIT_S8_EERKNSC_ISD_S9_EE:
.LFB8988:
	.loc 1 1141 7
	.cfi_startproc
	pushq	%rbp
	.seh_pushreg	%rbp
	.cfi_def_cfa_offset 16
	.cfi_offset 6, -16
	movq	%rsp, %rbp
	.seh_setframe	%rbp, 0
	.cfi_def_cfa_register 6
	subq	$48, %rsp
	.seh_stackalloc	48
	.seh_endprologue
	movq	%rcx, 16(%rbp)
	movq	%rdx, 24(%rbp)
	.loc 1 1143 65
	movq	24(%rbp), %rax
	movq	%rax, %rcx
	call	_ZNKSt6chrono10time_pointINS_3_V212system_clockENS_8durationIxSt5ratioILx1ELx1000000000EEEEE16time_since_epochEv
	movq	%rax, -16(%rbp)
	.loc 1 1143 38 discriminator 1
	movq	16(%rbp), %rax
	movq	%rax, %rcx
	call	_ZNKSt6chrono10time_pointINS_3_V212system_clockENS_8durationIxSt5ratioILx1ELx1000000000EEEEE16time_since_epochEv
	movq	%rax, -8(%rbp)
	.loc 1 1143 41 discriminator 2
	leaq	-16(%rbp), %rdx
	leaq	-8(%rbp), %rax
	movq	%rax, %rcx
	call	_ZNSt6chronomiIxSt5ratioILx1ELx1000000000EExS2_EENSt11common_typeIJNS_8durationIT_T0_EENS4_IT1_T2_EEEE4typeERKS7_RKSA_
	.loc 1 1143 69
	addq	$48, %rsp
	popq	%rbp
	.cfi_restore 6
	.cfi_def_cfa 7, 8
	ret
	.cfi_endproc
.LFE8988:
	.seh_endproc
	.section	.text$_ZNSt6chrono13duration_castINS_8durationIxSt5ratioILx1ELx1000000EEEExS2_ILx1ELx1000000000EEEENSt9enable_ifIXsrNS_13__is_durationIT_EE5valueES8_E4typeERKNS1_IT0_T1_EE,"x"
	.linkonce discard
	.globl	_ZNSt6chrono13duration_castINS_8durationIxSt5ratioILx1ELx1000000EEEExS2_ILx1ELx1000000000EEEENSt9enable_ifIXsrNS_13__is_durationIT_EE5valueES8_E4typeERKNS1_IT0_T1_EE
	.def	_ZNSt6chrono13duration_castINS_8durationIxSt5ratioILx1ELx1000000EEEExS2_ILx1ELx1000000000EEEENSt9enable_ifIXsrNS_13__is_durationIT_EE5valueES8_E4typeERKNS1_IT0_T1_EE;	.scl	2;	.type	32;	.endef
	.seh_proc	_ZNSt6chrono13duration_castINS_8durationIxSt5ratioILx1ELx1000000EEEExS2_ILx1ELx1000000000EEEENSt9enable_ifIXsrNS_13__is_durationIT_EE5valueES8_E4typeERKNS1_IT0_T1_EE
_ZNSt6chrono13duration_castINS_8durationIxSt5ratioILx1ELx1000000EEEExS2_ILx1ELx1000000000EEEENSt9enable_ifIXsrNS_13__is_durationIT_EE5valueES8_E4typeERKNS1_IT0_T1_EE:
.LFB8989:
	.loc 1 275 7
	.cfi_startproc
	pushq	%rbp
	.seh_pushreg	%rbp
	.cfi_def_cfa_offset 16
	.cfi_offset 6, -16
	movq	%rsp, %rbp
	.seh_setframe	%rbp, 0
	.cfi_def_cfa_register 6
	subq	$32, %rsp
	.seh_stackalloc	32
	.seh_endprologue
	movq	%rcx, 16(%rbp)
.LBB191:
.LBB192:
	.loc 1 289 23
	movq	16(%rbp), %rax
	movq	%rax, %rcx
	call	_ZNSt6chrono20__duration_cast_implINS_8durationIxSt5ratioILx1ELx1000000EEEES2_ILx1ELx1000EExLb1ELb0EE6__castIxS2_ILx1ELx1000000000EEEES4_RKNS1_IT_T0_EE
.LBE192:
.LBE191:
	.loc 1 293 7
	addq	$32, %rsp
	popq	%rbp
	.cfi_restore 6
	.cfi_def_cfa 7, 8
	ret
	.cfi_endproc
.LFE8989:
	.seh_endproc
	.section	.text$_ZNKSt6chrono8durationIxSt5ratioILx1ELx1000000EEE5countEv,"x"
	.linkonce discard
	.align 2
	.globl	_ZNKSt6chrono8durationIxSt5ratioILx1ELx1000000EEE5countEv
	.def	_ZNKSt6chrono8durationIxSt5ratioILx1ELx1000000EEE5countEv;	.scl	2;	.type	32;	.endef
	.seh_proc	_ZNKSt6chrono8durationIxSt5ratioILx1ELx1000000EEE5countEv
_ZNKSt6chrono8durationIxSt5ratioILx1ELx1000000EEE5countEv:
.LFB8991:
	.loc 1 589 2
	.cfi_startproc
	pushq	%rbp
	.seh_pushreg	%rbp
	.cfi_def_cfa_offset 16
	.cfi_offset 6, -16
	movq	%rsp, %rbp
	.seh_setframe	%rbp, 0
	.cfi_def_cfa_register 6
	.seh_endprologue
	movq	%rcx, 16(%rbp)
	.loc 1 590 11
	movq	16(%rbp), %rax
	movq	(%rax), %rax
	.loc 1 590 16
	popq	%rbp
	.cfi_restore 6
	.cfi_def_cfa 7, 8
	ret
	.cfi_endproc
.LFE8991:
	.seh_endproc
	.section	.text$_ZNSt7__cxx1112basic_stringIcSt11char_traitsIcESaIcEEC1IS3_EEycRKS3_,"x"
	.linkonce discard
	.align 2
	.globl	_ZNSt7__cxx1112basic_stringIcSt11char_traitsIcESaIcEEC1IS3_EEycRKS3_
	.def	_ZNSt7__cxx1112basic_stringIcSt11char_traitsIcESaIcEEC1IS3_EEycRKS3_;	.scl	2;	.type	32;	.endef
	.seh_proc	_ZNSt7__cxx1112basic_stringIcSt11char_traitsIcESaIcEEC1IS3_EEycRKS3_
_ZNSt7__cxx1112basic_stringIcSt11char_traitsIcESaIcEEC1IS3_EEycRKS3_:
.LFB8995:
	.loc 6 669 7
	.cfi_startproc
	pushq	%rbp
	.seh_pushreg	%rbp
	.cfi_def_cfa_offset 16
	.cfi_offset 6, -16
	pushq	%rbx
	.seh_pushreg	%rbx
	.cfi_def_cfa_offset 24
	.cfi_offset 3, -24
	subq	$40, %rsp
	.seh_stackalloc	40
	.cfi_def_cfa_offset 64
	leaq	32(%rsp), %rbp
	.seh_setframe	%rbp, 32
	.cfi_def_cfa 6, 32
	.seh_endprologue
	movq	%rcx, 32(%rbp)
	movq	%rdx, 40(%rbp)
	movl	%r8d, %eax
	movq	%r9, 56(%rbp)
	movb	%al, 48(%rbp)
.LBB193:
	.loc 6 670 9
	movq	32(%rbp), %rbx
	movq	32(%rbp), %rax
	movq	%rax, %rcx
	call	_ZNSt7__cxx1112basic_stringIcSt11char_traitsIcESaIcEE13_M_local_dataEv
	.loc 6 670 9 is_stmt 0 discriminator 1
	movq	56(%rbp), %rdx
	movq	%rdx, %r8
	movq	%rax, %rdx
	movq	%rbx, %rcx
	call	_ZNSt7__cxx1112basic_stringIcSt11char_traitsIcESaIcEE12_Alloc_hiderC1EPcRKS3_
	.loc 6 671 21 is_stmt 1
	movsbl	48(%rbp), %ecx
	movq	40(%rbp), %rdx
	movq	32(%rbp), %rax
	movl	%ecx, %r8d
	movq	%rax, %rcx
.LEHB20:
	call	_ZNSt7__cxx1112basic_stringIcSt11char_traitsIcESaIcEE12_M_constructEyc
.LEHE20:
.LBE193:
	.loc 6 671 33
	jmp	.L170
.L169:
.LBB194:
	.loc 6 671 33 is_stmt 0 discriminator 1
	movq	%rax, %rbx
	movq	32(%rbp), %rax
	movq	%rax, %rcx
	call	_ZNSt7__cxx1112basic_stringIcSt11char_traitsIcESaIcEE12_Alloc_hiderD1Ev
	movq	%rbx, %rax
	movq	%rax, %rcx
.LEHB21:
	call	_Unwind_Resume
	nop
.LEHE21:
.L170:
.LBE194:
	.loc 6 671 33
	addq	$40, %rsp
	popq	%rbx
	.cfi_restore 3
	popq	%rbp
	.cfi_restore 6
	.cfi_def_cfa 7, -24
	ret
	.cfi_endproc
.LFE8995:
	.seh_handler	__gxx_personality_seh0, @unwind, @except
	.seh_handlerdata
.LLSDA8995:
	.byte	0xff
	.byte	0xff
	.byte	0x1
	.uleb128 .LLSDACSE8995-.LLSDACSB8995
.LLSDACSB8995:
	.uleb128 .LEHB20-.LFB8995
	.uleb128 .LEHE20-.LEHB20
	.uleb128 .L169-.LFB8995
	.uleb128 0
	.uleb128 .LEHB21-.LFB8995
	.uleb128 .LEHE21-.LEHB21
	.uleb128 0
	.uleb128 0
.LLSDACSE8995:
	.section	.text$_ZNSt7__cxx1112basic_stringIcSt11char_traitsIcESaIcEEC1IS3_EEycRKS3_,"x"
	.linkonce discard
	.seh_endproc
	.section	.text$_ZNSt15__new_allocatorIcED2Ev,"x"
	.linkonce discard
	.align 2
	.globl	_ZNSt15__new_allocatorIcED2Ev
	.def	_ZNSt15__new_allocatorIcED2Ev;	.scl	2;	.type	32;	.endef
	.seh_proc	_ZNSt15__new_allocatorIcED2Ev
_ZNSt15__new_allocatorIcED2Ev:
.LFB9063:
	.loc 4 104 7 is_stmt 1
	.cfi_startproc
	pushq	%rbp
	.seh_pushreg	%rbp
	.cfi_def_cfa_offset 16
	.cfi_offset 6, -16
	movq	%rsp, %rbp
	.seh_setframe	%rbp, 0
	.cfi_def_cfa_register 6
	.seh_endprologue
	movq	%rcx, 16(%rbp)
	.loc 4 104 50
	nop
	popq	%rbp
	.cfi_restore 6
	.cfi_def_cfa 7, 8
	ret
	.cfi_endproc
.LFE9063:
	.seh_endproc
	.section	.text$_ZNSt6chronomiIxSt5ratioILx1ELx1000000000EExS2_EENSt11common_typeIJNS_8durationIT_T0_EENS4_IT1_T2_EEEE4typeERKS7_RKSA_,"x"
	.linkonce discard
	.globl	_ZNSt6chronomiIxSt5ratioILx1ELx1000000000EExS2_EENSt11common_typeIJNS_8durationIT_T0_EENS4_IT1_T2_EEEE4typeERKS7_RKSA_
	.def	_ZNSt6chronomiIxSt5ratioILx1ELx1000000000EExS2_EENSt11common_typeIJNS_8durationIT_T0_EENS4_IT1_T2_EEEE4typeERKS7_RKSA_;	.scl	2;	.type	32;	.endef
	.seh_proc	_ZNSt6chronomiIxSt5ratioILx1ELx1000000000EExS2_EENSt11common_typeIJNS_8durationIT_T0_EENS4_IT1_T2_EEEE4typeERKS7_RKSA_
_ZNSt6chronomiIxSt5ratioILx1ELx1000000000EExS2_EENSt11common_typeIJNS_8durationIT_T0_EENS4_IT1_T2_EEEE4typeERKS7_RKSA_:
.LFB9124:
	.loc 1 710 7
	.cfi_startproc
	pushq	%rbp
	.seh_pushreg	%rbp
	.cfi_def_cfa_offset 16
	.cfi_offset 6, -16
	pushq	%rbx
	.seh_pushreg	%rbx
	.cfi_def_cfa_offset 24
	.cfi_offset 3, -24
	subq	$72, %rsp
	.seh_stackalloc	72
	.cfi_def_cfa_offset 96
	leaq	64(%rsp), %rbp
	.seh_setframe	%rbp, 64
	.cfi_def_cfa 6, 32
	.seh_endprologue
	movq	%rcx, 32(%rbp)
	movq	%rdx, 40(%rbp)
	.loc 1 716 14
	movq	32(%rbp), %rax
	movq	(%rax), %rax
	movq	%rax, -16(%rbp)
	.loc 1 716 31
	leaq	-16(%rbp), %rax
	movq	%rax, %rcx
	call	_ZNKSt6chrono8durationIxSt5ratioILx1ELx1000000000EEE5countEv
	movq	%rax, %rbx
	.loc 1 716 36 discriminator 1
	movq	40(%rbp), %rax
	movq	(%rax), %rax
	movq	%rax, -8(%rbp)
	.loc 1 716 53 discriminator 1
	leaq	-8(%rbp), %rax
	movq	%rax, %rcx
	call	_ZNKSt6chrono8durationIxSt5ratioILx1ELx1000000000EEE5countEv
	.loc 1 716 34 discriminator 2
	subq	%rax, %rbx
	movq	%rbx, %rdx
	movq	%rdx, -24(%rbp)
	.loc 1 716 9 discriminator 2
	leaq	-24(%rbp), %rdx
	leaq	-32(%rbp), %rax
	movq	%rax, %rcx
	call	_ZNSt6chrono8durationIxSt5ratioILx1ELx1000000000EEEC1IxvEERKT_
	.loc 1 716 55 discriminator 3
	movq	-32(%rbp), %rax
	.loc 1 717 7
	addq	$72, %rsp
	popq	%rbx
	.cfi_restore 3
	popq	%rbp
	.cfi_restore 6
	.cfi_def_cfa 7, -56
	ret
	.cfi_endproc
.LFE9124:
	.seh_endproc
	.section	.text$_ZNSt6chrono20__duration_cast_implINS_8durationIxSt5ratioILx1ELx1000000EEEES2_ILx1ELx1000EExLb1ELb0EE6__castIxS2_ILx1ELx1000000000EEEES4_RKNS1_IT_T0_EE,"x"
	.linkonce discard
	.globl	_ZNSt6chrono20__duration_cast_implINS_8durationIxSt5ratioILx1ELx1000000EEEES2_ILx1ELx1000EExLb1ELb0EE6__castIxS2_ILx1ELx1000000000EEEES4_RKNS1_IT_T0_EE
	.def	_ZNSt6chrono20__duration_cast_implINS_8durationIxSt5ratioILx1ELx1000000EEEES2_ILx1ELx1000EExLb1ELb0EE6__castIxS2_ILx1ELx1000000000EEEES4_RKNS1_IT_T0_EE;	.scl	2;	.type	32;	.endef
	.seh_proc	_ZNSt6chrono20__duration_cast_implINS_8durationIxSt5ratioILx1ELx1000000EEEES2_ILx1ELx1000EExLb1ELb0EE6__castIxS2_ILx1ELx1000000000EEEES4_RKNS1_IT_T0_EE
_ZNSt6chrono20__duration_cast_implINS_8durationIxSt5ratioILx1ELx1000000EEEES2_ILx1ELx1000EExLb1ELb0EE6__castIxS2_ILx1ELx1000000000EEEES4_RKNS1_IT_T0_EE:
.LFB9125:
	.loc 1 210 4
	.cfi_startproc
	pushq	%rbp
	.seh_pushreg	%rbp
	.cfi_def_cfa_offset 16
	.cfi_offset 6, -16
	movq	%rsp, %rbp
	.seh_setframe	%rbp, 0
	.cfi_def_cfa_register 6
	subq	$48, %rsp
	.seh_stackalloc	48
	.seh_endprologue
	movq	%rcx, 16(%rbp)
	.loc 1 214 34
	movq	16(%rbp), %rax
	movq	%rax, %rcx
	call	_ZNKSt6chrono8durationIxSt5ratioILx1ELx1000000000EEE5countEv
	movq	%rax, %rcx
	.loc 1 214 38 discriminator 1
	movabsq	$2361183241434822607, %rdx
	movq	%rcx, %rax
	imulq	%rdx
	movq	%rdx, %rax
	sarq	$7, %rax
	sarq	$63, %rcx
	movq	%rcx, %rdx
	subq	%rdx, %rax
	.loc 1 213 20
	movq	%rax, -8(%rbp)
	.loc 1 213 13
	leaq	-8(%rbp), %rdx
	leaq	-16(%rbp), %rax
	movq	%rax, %rcx
	call	_ZNSt6chrono8durationIxSt5ratioILx1ELx1000000EEEC1IxvEERKT_
	.loc 1 214 67
	movq	-16(%rbp), %rax
	.loc 1 215 4
	addq	$48, %rsp
	popq	%rbp
	.cfi_restore 6
	.cfi_def_cfa 7, 8
	ret
	.cfi_endproc
.LFE9125:
	.seh_endproc
	.section	.text$_ZNSt6chrono8durationIxSt5ratioILx1ELx1000000EEEC1IxvEERKT_,"x"
	.linkonce discard
	.align 2
	.globl	_ZNSt6chrono8durationIxSt5ratioILx1ELx1000000EEEC1IxvEERKT_
	.def	_ZNSt6chrono8durationIxSt5ratioILx1ELx1000000EEEC1IxvEERKT_;	.scl	2;	.type	32;	.endef
	.seh_proc	_ZNSt6chrono8durationIxSt5ratioILx1ELx1000000EEEC1IxvEERKT_
_ZNSt6chrono8durationIxSt5ratioILx1ELx1000000EEEC1IxvEERKT_:
.LFB9191:
	.loc 1 573 23
	.cfi_startproc
	pushq	%rbp
	.seh_pushreg	%rbp
	.cfi_def_cfa_offset 16
	.cfi_offset 6, -16
	movq	%rsp, %rbp
	.seh_setframe	%rbp, 0
	.cfi_def_cfa_register 6
	.seh_endprologue
	movq	%rcx, 16(%rbp)
	movq	%rdx, 24(%rbp)
.LBB195:
	.loc 1 574 10
	movq	24(%rbp), %rax
	movq	(%rax), %rdx
	.loc 1 574 6
	movq	16(%rbp), %rax
	movq	%rdx, (%rax)
.LBE195:
	.loc 1 574 37
	nop
	popq	%rbp
	.cfi_restore 6
	.cfi_def_cfa 7, 8
	ret
	.cfi_endproc
.LFE9191:
	.seh_endproc
	.section .rdata,"dr"
_ZNSt8__detail30__integer_to_chars_is_unsignedIjEE:
	.byte	1
_ZNSt8__detail30__integer_to_chars_is_unsignedImEE:
	.byte	1
_ZNSt8__detail30__integer_to_chars_is_unsignedIyEE:
	.byte	1
_ZSt12__is_ratio_vISt5ratioILx1ELx1000000000EEE:
	.byte	1
_ZSt12__is_ratio_vISt5ratioILx1ELx1EEE:
	.byte	1
_ZSt12__is_ratio_vISt5ratioILx1000000ELx1EEE:
	.byte	1
_ZSt12__is_ratio_vISt5ratioILx1000000000ELx1EEE:
	.byte	1
	.text
.Letext0:
	.file 7 "C:/mingw64/include/c++/14.2.0/type_traits"
	.file 8 "C:/mingw64/include/c++/14.2.0/cstdint"
	.file 9 "C:/mingw64/include/c++/14.2.0/ctime"
	.file 10 "C:/mingw64/include/c++/14.2.0/x86_64-w64-mingw32/bits/c++config.h"
	.file 11 "C:/mingw64/include/c++/14.2.0/ratio"
	.file 12 "C:/mingw64/include/c++/14.2.0/cstddef"
	.file 13 "C:/mingw64/include/c++/14.2.0/cstdio"
	.file 14 "C:/mingw64/include/c++/14.2.0/cstdlib"
	.file 15 "C:/mingw64/include/c++/14.2.0/cwchar"
	.file 16 "C:/mingw64/include/c++/14.2.0/clocale"
	.file 17 "C:/mingw64/include/c++/14.2.0/bits/char_traits.h"
	.file 18 "C:/mingw64/include/c++/14.2.0/debug/debug.h"
	.file 19 "C:/mingw64/include/c++/14.2.0/string_view"
	.file 20 "C:/mingw64/include/c++/14.2.0/bits/alloc_traits.h"
	.file 21 "C:/mingw64/include/c++/14.2.0/initializer_list"
	.file 22 "C:/mingw64/include/c++/14.2.0/bits/stl_iterator_base_types.h"
	.file 23 "C:/mingw64/include/c++/14.2.0/bits/memory_resource.h"
	.file 24 "C:/mingw64/include/c++/14.2.0/bits/exception_ptr.h"
	.file 25 "C:/mingw64/include/c++/14.2.0/system_error"
	.file 26 "C:/mingw64/include/c++/14.2.0/cwctype"
	.file 27 "C:/mingw64/include/c++/14.2.0/bits/ostream.tcc"
	.file 28 "C:/mingw64/include/c++/14.2.0/ostream"
	.file 29 "C:/mingw64/include/c++/14.2.0/istream"
	.file 30 "C:/mingw64/include/c++/14.2.0/iosfwd"
	.file 31 "C:/mingw64/include/c++/14.2.0/iostream"
	.file 32 "C:/mingw64/include/c++/14.2.0/bits/std_abs.h"
	.file 33 "C:/mingw64/include/c++/14.2.0/bits/charconv.h"
	.file 34 "C:/mingw64/x86_64-w64-mingw32/include/corecrt.h"
	.file 35 "C:/mingw64/lib/gcc/x86_64-w64-mingw32/14.2.0/include/stddef.h"
	.file 36 "C:/mingw64/x86_64-w64-mingw32/include/stdint.h"
	.file 37 "C:/mingw64/x86_64-w64-mingw32/include/sys/timeb.h"
	.file 38 "C:/mingw64/x86_64-w64-mingw32/include/time.h"
	.file 39 "C:/mingw64/include/c++/14.2.0/bits/predefined_ops.h"
	.file 40 "C:/mingw64/include/c++/14.2.0/ext/alloc_traits.h"
	.file 41 "C:/mingw64/include/c++/14.2.0/bits/stl_iterator.h"
	.file 42 "C:/mingw64/x86_64-w64-mingw32/include/stdio.h"
	.file 43 "C:/mingw64/x86_64-w64-mingw32/include/stdlib.h"
	.file 44 "C:/mingw64/x86_64-w64-mingw32/include/wchar.h"
	.file 45 "C:/mingw64/x86_64-w64-mingw32/include/swprintf.inl"
	.file 46 "C:/mingw64/x86_64-w64-mingw32/include/locale.h"
	.file 47 "C:/mingw64/x86_64-w64-mingw32/include/wctype.h"
	.file 48 "C:/mingw64/x86_64-w64-mingw32/include/minwindef.h"
	.file 49 "C:/mingw64/include/c++/14.2.0/stdlib.h"
	.file 50 "C:/mingw64/include/c++/14.2.0/new"
	.file 51 "C:/mingw64/x86_64-w64-mingw32/include/conio.h"
	.file 52 "C:/mingw64/x86_64-w64-mingw32/include/synchapi.h"
	.section	.rdata$.refptr._ZSt4endlIcSt11char_traitsIcEERSt13basic_ostreamIT_T0_ES6_, "dr"
	.globl	.refptr._ZSt4endlIcSt11char_traitsIcEERSt13basic_ostreamIT_T0_ES6_
	.linkonce	discard
.refptr._ZSt4endlIcSt11char_traitsIcEERSt13basic_ostreamIT_T0_ES6_:
	.quad	_ZSt4endlIcSt11char_traitsIcEERSt13basic_ostreamIT_T0_ES6_
	.section	.rdata$.refptr._ZSt3cin, "dr"
	.globl	.refptr._ZSt3cin
	.linkonce	discard
.refptr._ZSt3cin:
	.quad	_ZSt3cin
	.section	.rdata$.refptr._ZSt4cout, "dr"
	.globl	.refptr._ZSt4cout
	.linkonce	discard
.refptr._ZSt4cout:
	.quad	_ZSt4cout
